


ARM Macro Assembler    Page 1 


    1 00000000         ;;subroutine to display
    2 00000000         ;;Enter LEDX T1
    3 00000000         ;;(#) done:
    4 00000000         
    5 00000000                 AREA             Program, CODE, READONLY
    6 00000000                 ENTRY
    7 00000000                 ARM                          ;use ARM instructio
                                                            n set
    8 00000000         
    9 00000000                 INCLUDE          LPC23xx.inc ; MMR definitions
    1 00000000         ; LPC23xx.inc
    2 00000000         ; defines for LPC23xx MMRs
    3 00000000         
    4 00000000         ;/* Vectored Interrupt Controller (VIC) */
    5 00000000 FFFFF000 
                       VIC_BASE_ADDR
                               EQU              0xFFFFF000
    6 00000000 FFFFF000 
                       VICIRQStatus
                               EQU              (VIC_BASE_ADDR + 0x000)
    7 00000000 FFFFF004 
                       VICFIQStatus
                               EQU              (VIC_BASE_ADDR + 0x004)
    8 00000000 FFFFF008 
                       VICRawIntr
                               EQU              (VIC_BASE_ADDR + 0x008)
    9 00000000 FFFFF00C 
                       VICIntSelect
                               EQU              (VIC_BASE_ADDR + 0x00C)
   10 00000000 FFFFF010 
                       VICIntEnable
                               EQU              (VIC_BASE_ADDR + 0x010)
   11 00000000 FFFFF014 
                       VICIntEnClr
                               EQU              (VIC_BASE_ADDR + 0x014)
   12 00000000 FFFFF018 
                       VICSoftInt
                               EQU              (VIC_BASE_ADDR + 0x018)
   13 00000000 FFFFF01C 
                       VICSoftIntClr
                               EQU              (VIC_BASE_ADDR + 0x01C)
   14 00000000 FFFFF020 
                       VICProtection
                               EQU              (VIC_BASE_ADDR + 0x020)
   15 00000000 FFFFF024 
                       VICSWPrioMask
                               EQU              (VIC_BASE_ADDR + 0x024)
   16 00000000         
   17 00000000 FFFFF100 
                       VICVectAddr0
                               EQU              (VIC_BASE_ADDR + 0x100)
   18 00000000 FFFFF104 
                       VICVectAddr1
                               EQU              (VIC_BASE_ADDR + 0x104)
   19 00000000 FFFFF108 
                       VICVectAddr2
                               EQU              (VIC_BASE_ADDR + 0x108)
   20 00000000 FFFFF10C 
                       VICVectAddr3



ARM Macro Assembler    Page 2 


                               EQU              (VIC_BASE_ADDR + 0x10C)
   21 00000000 FFFFF110 
                       VICVectAddr4
                               EQU              (VIC_BASE_ADDR + 0x110)
   22 00000000 FFFFF114 
                       VICVectAddr5
                               EQU              (VIC_BASE_ADDR + 0x114)
   23 00000000 FFFFF118 
                       VICVectAddr6
                               EQU              (VIC_BASE_ADDR + 0x118)
   24 00000000 FFFFF11C 
                       VICVectAddr7
                               EQU              (VIC_BASE_ADDR + 0x11C)
   25 00000000 FFFFF120 
                       VICVectAddr8
                               EQU              (VIC_BASE_ADDR + 0x120)
   26 00000000 FFFFF124 
                       VICVectAddr9
                               EQU              (VIC_BASE_ADDR + 0x124)
   27 00000000 FFFFF128 
                       VICVectAddr10
                               EQU              (VIC_BASE_ADDR + 0x128)
   28 00000000 FFFFF12C 
                       VICVectAddr11
                               EQU              (VIC_BASE_ADDR + 0x12C)
   29 00000000 FFFFF130 
                       VICVectAddr12
                               EQU              (VIC_BASE_ADDR + 0x130)
   30 00000000 FFFFF134 
                       VICVectAddr13
                               EQU              (VIC_BASE_ADDR + 0x134)
   31 00000000 FFFFF138 
                       VICVectAddr14
                               EQU              (VIC_BASE_ADDR + 0x138)
   32 00000000 FFFFF13C 
                       VICVectAddr15
                               EQU              (VIC_BASE_ADDR + 0x13C)
   33 00000000 FFFFF140 
                       VICVectAddr16
                               EQU              (VIC_BASE_ADDR + 0x140)
   34 00000000 FFFFF144 
                       VICVectAddr17
                               EQU              (VIC_BASE_ADDR + 0x144)
   35 00000000 FFFFF148 
                       VICVectAddr18
                               EQU              (VIC_BASE_ADDR + 0x148)
   36 00000000 FFFFF14C 
                       VICVectAddr19
                               EQU              (VIC_BASE_ADDR + 0x14C)
   37 00000000 FFFFF150 
                       VICVectAddr20
                               EQU              (VIC_BASE_ADDR + 0x150)
   38 00000000 FFFFF154 
                       VICVectAddr21
                               EQU              (VIC_BASE_ADDR + 0x154)
   39 00000000 FFFFF158 
                       VICVectAddr22
                               EQU              (VIC_BASE_ADDR + 0x158)
   40 00000000 FFFFF15C 



ARM Macro Assembler    Page 3 


                       VICVectAddr23
                               EQU              (VIC_BASE_ADDR + 0x15C)
   41 00000000 FFFFF160 
                       VICVectAddr24
                               EQU              (VIC_BASE_ADDR + 0x160)
   42 00000000 FFFFF164 
                       VICVectAddr25
                               EQU              (VIC_BASE_ADDR + 0x164)
   43 00000000 FFFFF168 
                       VICVectAddr26
                               EQU              (VIC_BASE_ADDR + 0x168)
   44 00000000 FFFFF16C 
                       VICVectAddr27
                               EQU              (VIC_BASE_ADDR + 0x16C)
   45 00000000 FFFFF170 
                       VICVectAddr28
                               EQU              (VIC_BASE_ADDR + 0x170)
   46 00000000 FFFFF174 
                       VICVectAddr29
                               EQU              (VIC_BASE_ADDR + 0x174)
   47 00000000 FFFFF178 
                       VICVectAddr30
                               EQU              (VIC_BASE_ADDR + 0x178)
   48 00000000 FFFFF17C 
                       VICVectAddr31
                               EQU              (VIC_BASE_ADDR + 0x17C)
   49 00000000         
   50 00000000         ;/* The name convention below is from previous LPC2000 f
                       amily MCUs, in LPC23xx/24xx,
   51 00000000         ; these registers are known as "VICVectPriority(x)". */
   52 00000000 FFFFF200 
                       VICVectCntl0
                               EQU              (VIC_BASE_ADDR + 0x200)
   53 00000000 FFFFF204 
                       VICVectCntl1
                               EQU              (VIC_BASE_ADDR + 0x204)
   54 00000000 FFFFF208 
                       VICVectCntl2
                               EQU              (VIC_BASE_ADDR + 0x208)
   55 00000000 FFFFF20C 
                       VICVectCntl3
                               EQU              (VIC_BASE_ADDR + 0x20C)
   56 00000000 FFFFF210 
                       VICVectCntl4
                               EQU              (VIC_BASE_ADDR + 0x210)
   57 00000000 FFFFF214 
                       VICVectCntl5
                               EQU              (VIC_BASE_ADDR + 0x214)
   58 00000000 FFFFF218 
                       VICVectCntl6
                               EQU              (VIC_BASE_ADDR + 0x218)
   59 00000000 FFFFF21C 
                       VICVectCntl7
                               EQU              (VIC_BASE_ADDR + 0x21C)
   60 00000000 FFFFF220 
                       VICVectCntl8
                               EQU              (VIC_BASE_ADDR + 0x220)
   61 00000000 FFFFF224 
                       VICVectCntl9



ARM Macro Assembler    Page 4 


                               EQU              (VIC_BASE_ADDR + 0x224)
   62 00000000 FFFFF228 
                       VICVectCntl10
                               EQU              (VIC_BASE_ADDR + 0x228)
   63 00000000 FFFFF22C 
                       VICVectCntl11
                               EQU              (VIC_BASE_ADDR + 0x22C)
   64 00000000 FFFFF230 
                       VICVectCntl12
                               EQU              (VIC_BASE_ADDR + 0x230)
   65 00000000 FFFFF234 
                       VICVectCntl13
                               EQU              (VIC_BASE_ADDR + 0x234)
   66 00000000 FFFFF238 
                       VICVectCntl14
                               EQU              (VIC_BASE_ADDR + 0x238)
   67 00000000 FFFFF23C 
                       VICVectCntl15
                               EQU              (VIC_BASE_ADDR + 0x23C)
   68 00000000 FFFFF240 
                       VICVectCntl16
                               EQU              (VIC_BASE_ADDR + 0x240)
   69 00000000 FFFFF244 
                       VICVectCntl17
                               EQU              (VIC_BASE_ADDR + 0x244)
   70 00000000 FFFFF248 
                       VICVectCntl18
                               EQU              (VIC_BASE_ADDR + 0x248)
   71 00000000 FFFFF24C 
                       VICVectCntl19
                               EQU              (VIC_BASE_ADDR + 0x24C)
   72 00000000 FFFFF250 
                       VICVectCntl20
                               EQU              (VIC_BASE_ADDR + 0x250)
   73 00000000 FFFFF254 
                       VICVectCntl21
                               EQU              (VIC_BASE_ADDR + 0x254)
   74 00000000 FFFFF258 
                       VICVectCntl22
                               EQU              (VIC_BASE_ADDR + 0x258)
   75 00000000 FFFFF25C 
                       VICVectCntl23
                               EQU              (VIC_BASE_ADDR + 0x25C)
   76 00000000 FFFFF260 
                       VICVectCntl24
                               EQU              (VIC_BASE_ADDR + 0x260)
   77 00000000 FFFFF264 
                       VICVectCntl25
                               EQU              (VIC_BASE_ADDR + 0x264)
   78 00000000 FFFFF268 
                       VICVectCntl26
                               EQU              (VIC_BASE_ADDR + 0x268)
   79 00000000 FFFFF26C 
                       VICVectCntl27
                               EQU              (VIC_BASE_ADDR + 0x26C)
   80 00000000 FFFFF270 
                       VICVectCntl28
                               EQU              (VIC_BASE_ADDR + 0x270)
   81 00000000 FFFFF274 



ARM Macro Assembler    Page 5 


                       VICVectCntl29
                               EQU              (VIC_BASE_ADDR + 0x274)
   82 00000000 FFFFF278 
                       VICVectCntl30
                               EQU              (VIC_BASE_ADDR + 0x278)
   83 00000000 FFFFF27C 
                       VICVectCntl31
                               EQU              (VIC_BASE_ADDR + 0x27C)
   84 00000000         
   85 00000000 FFFFFF00 
                       VICVectAddr
                               EQU              (VIC_BASE_ADDR + 0xF00)
   86 00000000         
   87 00000000         
   88 00000000         ;/* Pin Connect Block */
   89 00000000 E002C000 
                       PINSEL_BASE_ADDR
                               EQU              0xE002C000
   90 00000000 E002C000 
                       PINSEL0 EQU              (PINSEL_BASE_ADDR + 0x00)
   91 00000000 E002C004 
                       PINSEL1 EQU              (PINSEL_BASE_ADDR + 0x04)
   92 00000000 E002C008 
                       PINSEL2 EQU              (PINSEL_BASE_ADDR + 0x08)
   93 00000000 E002C00C 
                       PINSEL3 EQU              (PINSEL_BASE_ADDR + 0x0C)
   94 00000000 E002C010 
                       PINSEL4 EQU              (PINSEL_BASE_ADDR + 0x10)
   95 00000000 E002C014 
                       PINSEL5 EQU              (PINSEL_BASE_ADDR + 0x14)
   96 00000000 E002C018 
                       PINSEL6 EQU              (PINSEL_BASE_ADDR + 0x18)
   97 00000000 E002C01C 
                       PINSEL7 EQU              (PINSEL_BASE_ADDR + 0x1C)
   98 00000000 E002C020 
                       PINSEL8 EQU              (PINSEL_BASE_ADDR + 0x20)
   99 00000000 E002C024 
                       PINSEL9 EQU              (PINSEL_BASE_ADDR + 0x24)
  100 00000000 E002C028 
                       PINSEL10
                               EQU              (PINSEL_BASE_ADDR + 0x28)
  101 00000000         
  102 00000000 E002C040 
                       PINMODE0
                               EQU              (PINSEL_BASE_ADDR + 0x40)
  103 00000000 E002C044 
                       PINMODE1
                               EQU              (PINSEL_BASE_ADDR + 0x44)
  104 00000000 E002C048 
                       PINMODE2
                               EQU              (PINSEL_BASE_ADDR + 0x48)
  105 00000000 E002C04C 
                       PINMODE3
                               EQU              (PINSEL_BASE_ADDR + 0x4C)
  106 00000000 E002C050 
                       PINMODE4
                               EQU              (PINSEL_BASE_ADDR + 0x50)
  107 00000000 E002C054 
                       PINMODE5



ARM Macro Assembler    Page 6 


                               EQU              (PINSEL_BASE_ADDR + 0x54)
  108 00000000 E002C058 
                       PINMODE6
                               EQU              (PINSEL_BASE_ADDR + 0x58)
  109 00000000 E002C05C 
                       PINMODE7
                               EQU              (PINSEL_BASE_ADDR + 0x5C)
  110 00000000 E002C060 
                       PINMODE8
                               EQU              (PINSEL_BASE_ADDR + 0x60)
  111 00000000 E002C064 
                       PINMODE9
                               EQU              (PINSEL_BASE_ADDR + 0x64)
  112 00000000         
  113 00000000         ;/* General Purpose Input/Output (GPIO) */
  114 00000000 E0028000 
                       GPIO_BASE_ADDR
                               EQU              0xE0028000
  115 00000000 E0028000 
                       IOPIN0  EQU              (GPIO_BASE_ADDR + 0x00)
  116 00000000 E0028004 
                       IOSET0  EQU              (GPIO_BASE_ADDR + 0x04)
  117 00000000 E0028008 
                       IODIR0  EQU              (GPIO_BASE_ADDR + 0x08)
  118 00000000 E002800C 
                       IOCLR0  EQU              (GPIO_BASE_ADDR + 0x0C)
  119 00000000 E0028010 
                       IOPIN1  EQU              (GPIO_BASE_ADDR + 0x10)
  120 00000000 E0028014 
                       IOSET1  EQU              (GPIO_BASE_ADDR + 0x14)
  121 00000000 E0028018 
                       IODIR1  EQU              (GPIO_BASE_ADDR + 0x18)
  122 00000000 E002801C 
                       IOCLR1  EQU              (GPIO_BASE_ADDR + 0x1C)
  123 00000000         
  124 00000000         ;/* GPIO Interrupt Registers */
  125 00000000 E0028090 
                       IO0_INT_EN_R
                               EQU              (GPIO_BASE_ADDR + 0x90)
  126 00000000 E0028094 
                       IO0_INT_EN_F
                               EQU              (GPIO_BASE_ADDR + 0x94)
  127 00000000 E0028084 
                       IO0_INT_STAT_R
                               EQU              (GPIO_BASE_ADDR + 0x84)
  128 00000000 E0028088 
                       IO0_INT_STAT_F
                               EQU              (GPIO_BASE_ADDR + 0x88)
  129 00000000 E002808C 
                       IO0_INT_CLR
                               EQU              (GPIO_BASE_ADDR + 0x8C)
  130 00000000         
  131 00000000 E00280B0 
                       IO2_INT_EN_R
                               EQU              (GPIO_BASE_ADDR + 0xB0)
  132 00000000 E00280B4 
                       IO2_INT_EN_F
                               EQU              (GPIO_BASE_ADDR + 0xB4)
  133 00000000 E00280A4 



ARM Macro Assembler    Page 7 


                       IO2_INT_STAT_R
                               EQU              (GPIO_BASE_ADDR + 0xA4)
  134 00000000 E00280A8 
                       IO2_INT_STAT_F
                               EQU              (GPIO_BASE_ADDR + 0xA8)
  135 00000000 E00280AC 
                       IO2_INT_CLR
                               EQU              (GPIO_BASE_ADDR + 0xAC)
  136 00000000         
  137 00000000 E0028080 
                       IO_INT_STAT
                               EQU              (GPIO_BASE_ADDR + 0x80)
  138 00000000         
  139 00000000 3FFF8000 
                       PARTCFG_BASE_ADDR
                               EQU              0x3FFF8000
  140 00000000 3FFF8000 
                       PARTCFG EQU              (PARTCFG_BASE_ADDR + 0x00)
  141 00000000         
  142 00000000         ;/* Fast I/O setup */
  143 00000000 3FFFC000 
                       FIO_BASE_ADDR
                               EQU              0x3FFFC000
  144 00000000 3FFFC000 
                       FIO0DIR EQU              (FIO_BASE_ADDR + 0x00)
  145 00000000 3FFFC010 
                       FIO0MASK
                               EQU              (FIO_BASE_ADDR + 0x10)
  146 00000000 3FFFC014 
                       FIO0PIN EQU              (FIO_BASE_ADDR + 0x14)
  147 00000000 3FFFC018 
                       FIO0SET EQU              (FIO_BASE_ADDR + 0x18)
  148 00000000 3FFFC01C 
                       FIO0CLR EQU              (FIO_BASE_ADDR + 0x1C)
  149 00000000         
  150 00000000 3FFFC020 
                       FIO1DIR EQU              (FIO_BASE_ADDR + 0x20)
  151 00000000 3FFFC030 
                       FIO1MASK
                               EQU              (FIO_BASE_ADDR + 0x30)
  152 00000000 3FFFC034 
                       FIO1PIN EQU              (FIO_BASE_ADDR + 0x34)
  153 00000000 3FFFC038 
                       FIO1SET EQU              (FIO_BASE_ADDR + 0x38)
  154 00000000 3FFFC03C 
                       FIO1CLR EQU              (FIO_BASE_ADDR + 0x3C)
  155 00000000         
  156 00000000 3FFFC040 
                       FIO2DIR EQU              (FIO_BASE_ADDR + 0x40)
  157 00000000 3FFFC050 
                       FIO2MASK
                               EQU              (FIO_BASE_ADDR + 0x50)
  158 00000000 3FFFC054 
                       FIO2PIN EQU              (FIO_BASE_ADDR + 0x54)
  159 00000000 3FFFC058 
                       FIO2SET EQU              (FIO_BASE_ADDR + 0x58)
  160 00000000 3FFFC05C 
                       FIO2CLR EQU              (FIO_BASE_ADDR + 0x5C)
  161 00000000         



ARM Macro Assembler    Page 8 


  162 00000000 3FFFC060 
                       FIO3DIR EQU              (FIO_BASE_ADDR + 0x60)
  163 00000000 3FFFC070 
                       FIO3MASK
                               EQU              (FIO_BASE_ADDR + 0x70)
  164 00000000 3FFFC074 
                       FIO3PIN EQU              (FIO_BASE_ADDR + 0x74)
  165 00000000 3FFFC078 
                       FIO3SET EQU              (FIO_BASE_ADDR + 0x78)
  166 00000000 3FFFC07C 
                       FIO3CLR EQU              (FIO_BASE_ADDR + 0x7C)
  167 00000000         
  168 00000000 3FFFC080 
                       FIO4DIR EQU              (FIO_BASE_ADDR + 0x80)
  169 00000000 3FFFC090 
                       FIO4MASK
                               EQU              (FIO_BASE_ADDR + 0x90)
  170 00000000 3FFFC094 
                       FIO4PIN EQU              (FIO_BASE_ADDR + 0x94)
  171 00000000 3FFFC098 
                       FIO4SET EQU              (FIO_BASE_ADDR + 0x98)
  172 00000000 3FFFC09C 
                       FIO4CLR EQU              (FIO_BASE_ADDR + 0x9C)
  173 00000000         
  174 00000000         ;/* FIOs can be accessed through WORD, HALF-WORD or BYTE
                       . */
  175 00000000 3FFFC000 
                       FIO0DIR0
                               EQU              (FIO_BASE_ADDR + 0x00)
  176 00000000 3FFFC020 
                       FIO1DIR0
                               EQU              (FIO_BASE_ADDR + 0x20)
  177 00000000 3FFFC040 
                       FIO2DIR0
                               EQU              (FIO_BASE_ADDR + 0x40)
  178 00000000 3FFFC060 
                       FIO3DIR0
                               EQU              (FIO_BASE_ADDR + 0x60)
  179 00000000 3FFFC080 
                       FIO4DIR0
                               EQU              (FIO_BASE_ADDR + 0x80)
  180 00000000         
  181 00000000 3FFFC001 
                       FIO0DIR1
                               EQU              (FIO_BASE_ADDR + 0x01)
  182 00000000 3FFFC021 
                       FIO1DIR1
                               EQU              (FIO_BASE_ADDR + 0x21)
  183 00000000 3FFFC041 
                       FIO2DIR1
                               EQU              (FIO_BASE_ADDR + 0x41)
  184 00000000 3FFFC061 
                       FIO3DIR1
                               EQU              (FIO_BASE_ADDR + 0x61)
  185 00000000 3FFFC081 
                       FIO4DIR1
                               EQU              (FIO_BASE_ADDR + 0x81)
  186 00000000         
  187 00000000 3FFFC002 



ARM Macro Assembler    Page 9 


                       FIO0DIR2
                               EQU              (FIO_BASE_ADDR + 0x02)
  188 00000000 3FFFC022 
                       FIO1DIR2
                               EQU              (FIO_BASE_ADDR + 0x22)
  189 00000000 3FFFC042 
                       FIO2DIR2
                               EQU              (FIO_BASE_ADDR + 0x42)
  190 00000000 3FFFC062 
                       FIO3DIR2
                               EQU              (FIO_BASE_ADDR + 0x62)
  191 00000000 3FFFC082 
                       FIO4DIR2
                               EQU              (FIO_BASE_ADDR + 0x82)
  192 00000000         
  193 00000000 3FFFC003 
                       FIO0DIR3
                               EQU              (FIO_BASE_ADDR + 0x03)
  194 00000000 3FFFC023 
                       FIO1DIR3
                               EQU              (FIO_BASE_ADDR + 0x23)
  195 00000000 3FFFC043 
                       FIO2DIR3
                               EQU              (FIO_BASE_ADDR + 0x43)
  196 00000000 3FFFC063 
                       FIO3DIR3
                               EQU              (FIO_BASE_ADDR + 0x63)
  197 00000000 3FFFC083 
                       FIO4DIR3
                               EQU              (FIO_BASE_ADDR + 0x83)
  198 00000000         
  199 00000000 3FFFC000 
                       FIO0DIRL
                               EQU              (FIO_BASE_ADDR + 0x00)
  200 00000000 3FFFC020 
                       FIO1DIRL
                               EQU              (FIO_BASE_ADDR + 0x20)
  201 00000000 3FFFC040 
                       FIO2DIRL
                               EQU              (FIO_BASE_ADDR + 0x40)
  202 00000000 3FFFC060 
                       FIO3DIRL
                               EQU              (FIO_BASE_ADDR + 0x60)
  203 00000000 3FFFC080 
                       FIO4DIRL
                               EQU              (FIO_BASE_ADDR + 0x80)
  204 00000000         
  205 00000000 3FFFC002 
                       FIO0DIRU
                               EQU              (FIO_BASE_ADDR + 0x02)
  206 00000000 3FFFC022 
                       FIO1DIRU
                               EQU              (FIO_BASE_ADDR + 0x22)
  207 00000000 3FFFC042 
                       FIO2DIRU
                               EQU              (FIO_BASE_ADDR + 0x42)
  208 00000000 3FFFC062 
                       FIO3DIRU
                               EQU              (FIO_BASE_ADDR + 0x62)



ARM Macro Assembler    Page 10 


  209 00000000 3FFFC082 
                       FIO4DIRU
                               EQU              (FIO_BASE_ADDR + 0x82)
  210 00000000         
  211 00000000 3FFFC010 
                       FIO0MASK0
                               EQU              (FIO_BASE_ADDR + 0x10)
  212 00000000 3FFFC030 
                       FIO1MASK0
                               EQU              (FIO_BASE_ADDR + 0x30)
  213 00000000 3FFFC050 
                       FIO2MASK0
                               EQU              (FIO_BASE_ADDR + 0x50)
  214 00000000 3FFFC070 
                       FIO3MASK0
                               EQU              (FIO_BASE_ADDR + 0x70)
  215 00000000 3FFFC090 
                       FIO4MASK0
                               EQU              (FIO_BASE_ADDR + 0x90)
  216 00000000         
  217 00000000 3FFFC011 
                       FIO0MASK1
                               EQU              (FIO_BASE_ADDR + 0x11)
  218 00000000 3FFFC021 
                       FIO1MASK1
                               EQU              (FIO_BASE_ADDR + 0x21)
  219 00000000 3FFFC051 
                       FIO2MASK1
                               EQU              (FIO_BASE_ADDR + 0x51)
  220 00000000 3FFFC071 
                       FIO3MASK1
                               EQU              (FIO_BASE_ADDR + 0x71)
  221 00000000 3FFFC091 
                       FIO4MASK1
                               EQU              (FIO_BASE_ADDR + 0x91)
  222 00000000         
  223 00000000 3FFFC012 
                       FIO0MASK2
                               EQU              (FIO_BASE_ADDR + 0x12)
  224 00000000 3FFFC032 
                       FIO1MASK2
                               EQU              (FIO_BASE_ADDR + 0x32)
  225 00000000 3FFFC052 
                       FIO2MASK2
                               EQU              (FIO_BASE_ADDR + 0x52)
  226 00000000 3FFFC072 
                       FIO3MASK2
                               EQU              (FIO_BASE_ADDR + 0x72)
  227 00000000 3FFFC092 
                       FIO4MASK2
                               EQU              (FIO_BASE_ADDR + 0x92)
  228 00000000         
  229 00000000 3FFFC013 
                       FIO0MASK3
                               EQU              (FIO_BASE_ADDR + 0x13)
  230 00000000 3FFFC033 
                       FIO1MASK3
                               EQU              (FIO_BASE_ADDR + 0x33)
  231 00000000 3FFFC053 



ARM Macro Assembler    Page 11 


                       FIO2MASK3
                               EQU              (FIO_BASE_ADDR + 0x53)
  232 00000000 3FFFC073 
                       FIO3MASK3
                               EQU              (FIO_BASE_ADDR + 0x73)
  233 00000000 3FFFC093 
                       FIO4MASK3
                               EQU              (FIO_BASE_ADDR + 0x93)
  234 00000000         
  235 00000000 3FFFC010 
                       FIO0MASKL
                               EQU              (FIO_BASE_ADDR + 0x10)
  236 00000000 3FFFC030 
                       FIO1MASKL
                               EQU              (FIO_BASE_ADDR + 0x30)
  237 00000000 3FFFC050 
                       FIO2MASKL
                               EQU              (FIO_BASE_ADDR + 0x50)
  238 00000000 3FFFC070 
                       FIO3MASKL
                               EQU              (FIO_BASE_ADDR + 0x70)
  239 00000000 3FFFC090 
                       FIO4MASKL
                               EQU              (FIO_BASE_ADDR + 0x90)
  240 00000000         
  241 00000000 3FFFC012 
                       FIO0MASKU
                               EQU              (FIO_BASE_ADDR + 0x12)
  242 00000000 3FFFC032 
                       FIO1MASKU
                               EQU              (FIO_BASE_ADDR + 0x32)
  243 00000000 3FFFC052 
                       FIO2MASKU
                               EQU              (FIO_BASE_ADDR + 0x52)
  244 00000000 3FFFC072 
                       FIO3MASKU
                               EQU              (FIO_BASE_ADDR + 0x72)
  245 00000000 3FFFC092 
                       FIO4MASKU
                               EQU              (FIO_BASE_ADDR + 0x92)
  246 00000000         
  247 00000000 3FFFC014 
                       FIO0PIN0
                               EQU              (FIO_BASE_ADDR + 0x14)
  248 00000000 3FFFC034 
                       FIO1PIN0
                               EQU              (FIO_BASE_ADDR + 0x34)
  249 00000000 3FFFC054 
                       FIO2PIN0
                               EQU              (FIO_BASE_ADDR + 0x54)
  250 00000000 3FFFC074 
                       FIO3PIN0
                               EQU              (FIO_BASE_ADDR + 0x74)
  251 00000000 3FFFC094 
                       FIO4PIN0
                               EQU              (FIO_BASE_ADDR + 0x94)
  252 00000000         
  253 00000000 3FFFC015 
                       FIO0PIN1



ARM Macro Assembler    Page 12 


                               EQU              (FIO_BASE_ADDR + 0x15)
  254 00000000 3FFFC025 
                       FIO1PIN1
                               EQU              (FIO_BASE_ADDR + 0x25)
  255 00000000 3FFFC055 
                       FIO2PIN1
                               EQU              (FIO_BASE_ADDR + 0x55)
  256 00000000 3FFFC075 
                       FIO3PIN1
                               EQU              (FIO_BASE_ADDR + 0x75)
  257 00000000 3FFFC095 
                       FIO4PIN1
                               EQU              (FIO_BASE_ADDR + 0x95)
  258 00000000         
  259 00000000 3FFFC016 
                       FIO0PIN2
                               EQU              (FIO_BASE_ADDR + 0x16)
  260 00000000 3FFFC036 
                       FIO1PIN2
                               EQU              (FIO_BASE_ADDR + 0x36)
  261 00000000 3FFFC056 
                       FIO2PIN2
                               EQU              (FIO_BASE_ADDR + 0x56)
  262 00000000 3FFFC076 
                       FIO3PIN2
                               EQU              (FIO_BASE_ADDR + 0x76)
  263 00000000 3FFFC096 
                       FIO4PIN2
                               EQU              (FIO_BASE_ADDR + 0x96)
  264 00000000         
  265 00000000 3FFFC017 
                       FIO0PIN3
                               EQU              (FIO_BASE_ADDR + 0x17)
  266 00000000 3FFFC037 
                       FIO1PIN3
                               EQU              (FIO_BASE_ADDR + 0x37)
  267 00000000 3FFFC057 
                       FIO2PIN3
                               EQU              (FIO_BASE_ADDR + 0x57)
  268 00000000 3FFFC077 
                       FIO3PIN3
                               EQU              (FIO_BASE_ADDR + 0x77)
  269 00000000 3FFFC097 
                       FIO4PIN3
                               EQU              (FIO_BASE_ADDR + 0x97)
  270 00000000         
  271 00000000 3FFFC014 
                       FIO0PINL
                               EQU              (FIO_BASE_ADDR + 0x14)
  272 00000000 3FFFC034 
                       FIO1PINL
                               EQU              (FIO_BASE_ADDR + 0x34)
  273 00000000 3FFFC054 
                       FIO2PINL
                               EQU              (FIO_BASE_ADDR + 0x54)
  274 00000000 3FFFC074 
                       FIO3PINL
                               EQU              (FIO_BASE_ADDR + 0x74)
  275 00000000 3FFFC094 



ARM Macro Assembler    Page 13 


                       FIO4PINL
                               EQU              (FIO_BASE_ADDR + 0x94)
  276 00000000         
  277 00000000 3FFFC016 
                       FIO0PINU
                               EQU              (FIO_BASE_ADDR + 0x16)
  278 00000000 3FFFC036 
                       FIO1PINU
                               EQU              (FIO_BASE_ADDR + 0x36)
  279 00000000 3FFFC056 
                       FIO2PINU
                               EQU              (FIO_BASE_ADDR + 0x56)
  280 00000000 3FFFC076 
                       FIO3PINU
                               EQU              (FIO_BASE_ADDR + 0x76)
  281 00000000 3FFFC096 
                       FIO4PINU
                               EQU              (FIO_BASE_ADDR + 0x96)
  282 00000000         
  283 00000000 3FFFC018 
                       FIO0SET0
                               EQU              (FIO_BASE_ADDR + 0x18)
  284 00000000 3FFFC038 
                       FIO1SET0
                               EQU              (FIO_BASE_ADDR + 0x38)
  285 00000000 3FFFC058 
                       FIO2SET0
                               EQU              (FIO_BASE_ADDR + 0x58)
  286 00000000 3FFFC078 
                       FIO3SET0
                               EQU              (FIO_BASE_ADDR + 0x78)
  287 00000000 3FFFC098 
                       FIO4SET0
                               EQU              (FIO_BASE_ADDR + 0x98)
  288 00000000         
  289 00000000 3FFFC019 
                       FIO0SET1
                               EQU              (FIO_BASE_ADDR + 0x19)
  290 00000000 3FFFC029 
                       FIO1SET1
                               EQU              (FIO_BASE_ADDR + 0x29)
  291 00000000 3FFFC059 
                       FIO2SET1
                               EQU              (FIO_BASE_ADDR + 0x59)
  292 00000000 3FFFC079 
                       FIO3SET1
                               EQU              (FIO_BASE_ADDR + 0x79)
  293 00000000 3FFFC099 
                       FIO4SET1
                               EQU              (FIO_BASE_ADDR + 0x99)
  294 00000000         
  295 00000000 3FFFC01A 
                       FIO0SET2
                               EQU              (FIO_BASE_ADDR + 0x1A)
  296 00000000 3FFFC03A 
                       FIO1SET2
                               EQU              (FIO_BASE_ADDR + 0x3A)
  297 00000000 3FFFC05A 
                       FIO2SET2



ARM Macro Assembler    Page 14 


                               EQU              (FIO_BASE_ADDR + 0x5A)
  298 00000000 3FFFC07A 
                       FIO3SET2
                               EQU              (FIO_BASE_ADDR + 0x7A)
  299 00000000 3FFFC09A 
                       FIO4SET2
                               EQU              (FIO_BASE_ADDR + 0x9A)
  300 00000000         
  301 00000000 3FFFC01B 
                       FIO0SET3
                               EQU              (FIO_BASE_ADDR + 0x1B)
  302 00000000 3FFFC03B 
                       FIO1SET3
                               EQU              (FIO_BASE_ADDR + 0x3B)
  303 00000000 3FFFC05B 
                       FIO2SET3
                               EQU              (FIO_BASE_ADDR + 0x5B)
  304 00000000 3FFFC07B 
                       FIO3SET3
                               EQU              (FIO_BASE_ADDR + 0x7B)
  305 00000000 3FFFC09B 
                       FIO4SET3
                               EQU              (FIO_BASE_ADDR + 0x9B)
  306 00000000         
  307 00000000 3FFFC018 
                       FIO0SETL
                               EQU              (FIO_BASE_ADDR + 0x18)
  308 00000000 3FFFC038 
                       FIO1SETL
                               EQU              (FIO_BASE_ADDR + 0x38)
  309 00000000 3FFFC058 
                       FIO2SETL
                               EQU              (FIO_BASE_ADDR + 0x58)
  310 00000000 3FFFC078 
                       FIO3SETL
                               EQU              (FIO_BASE_ADDR + 0x78)
  311 00000000 3FFFC098 
                       FIO4SETL
                               EQU              (FIO_BASE_ADDR + 0x98)
  312 00000000         
  313 00000000 3FFFC01A 
                       FIO0SETU
                               EQU              (FIO_BASE_ADDR + 0x1A)
  314 00000000 3FFFC03A 
                       FIO1SETU
                               EQU              (FIO_BASE_ADDR + 0x3A)
  315 00000000 3FFFC05A 
                       FIO2SETU
                               EQU              (FIO_BASE_ADDR + 0x5A)
  316 00000000 3FFFC07A 
                       FIO3SETU
                               EQU              (FIO_BASE_ADDR + 0x7A)
  317 00000000 3FFFC09A 
                       FIO4SETU
                               EQU              (FIO_BASE_ADDR + 0x9A)
  318 00000000         
  319 00000000 3FFFC01C 
                       FIO0CLR0
                               EQU              (FIO_BASE_ADDR + 0x1C)



ARM Macro Assembler    Page 15 


  320 00000000 3FFFC03C 
                       FIO1CLR0
                               EQU              (FIO_BASE_ADDR + 0x3C)
  321 00000000 3FFFC05C 
                       FIO2CLR0
                               EQU              (FIO_BASE_ADDR + 0x5C)
  322 00000000 3FFFC07C 
                       FIO3CLR0
                               EQU              (FIO_BASE_ADDR + 0x7C)
  323 00000000 3FFFC09C 
                       FIO4CLR0
                               EQU              (FIO_BASE_ADDR + 0x9C)
  324 00000000         
  325 00000000 3FFFC01D 
                       FIO0CLR1
                               EQU              (FIO_BASE_ADDR + 0x1D)
  326 00000000 3FFFC02D 
                       FIO1CLR1
                               EQU              (FIO_BASE_ADDR + 0x2D)
  327 00000000 3FFFC05D 
                       FIO2CLR1
                               EQU              (FIO_BASE_ADDR + 0x5D)
  328 00000000 3FFFC07D 
                       FIO3CLR1
                               EQU              (FIO_BASE_ADDR + 0x7D)
  329 00000000 3FFFC09D 
                       FIO4CLR1
                               EQU              (FIO_BASE_ADDR + 0x9D)
  330 00000000         
  331 00000000 3FFFC01E 
                       FIO0CLR2
                               EQU              (FIO_BASE_ADDR + 0x1E)
  332 00000000 3FFFC03E 
                       FIO1CLR2
                               EQU              (FIO_BASE_ADDR + 0x3E)
  333 00000000 3FFFC05E 
                       FIO2CLR2
                               EQU              (FIO_BASE_ADDR + 0x5E)
  334 00000000 3FFFC07E 
                       FIO3CLR2
                               EQU              (FIO_BASE_ADDR + 0x7E)
  335 00000000 3FFFC09E 
                       FIO4CLR2
                               EQU              (FIO_BASE_ADDR + 0x9E)
  336 00000000         
  337 00000000 3FFFC01F 
                       FIO0CLR3
                               EQU              (FIO_BASE_ADDR + 0x1F)
  338 00000000 3FFFC03F 
                       FIO1CLR3
                               EQU              (FIO_BASE_ADDR + 0x3F)
  339 00000000 3FFFC05F 
                       FIO2CLR3
                               EQU              (FIO_BASE_ADDR + 0x5F)
  340 00000000 3FFFC07F 
                       FIO3CLR3
                               EQU              (FIO_BASE_ADDR + 0x7F)
  341 00000000 3FFFC09F 
                       FIO4CLR3



ARM Macro Assembler    Page 16 


                               EQU              (FIO_BASE_ADDR + 0x9F)
  342 00000000         
  343 00000000 3FFFC01C 
                       FIO0CLRL
                               EQU              (FIO_BASE_ADDR + 0x1C)
  344 00000000 3FFFC03C 
                       FIO1CLRL
                               EQU              (FIO_BASE_ADDR + 0x3C)
  345 00000000 3FFFC05C 
                       FIO2CLRL
                               EQU              (FIO_BASE_ADDR + 0x5C)
  346 00000000 3FFFC07C 
                       FIO3CLRL
                               EQU              (FIO_BASE_ADDR + 0x7C)
  347 00000000 3FFFC09C 
                       FIO4CLRL
                               EQU              (FIO_BASE_ADDR + 0x9C)
  348 00000000         
  349 00000000 3FFFC01E 
                       FIO0CLRU
                               EQU              (FIO_BASE_ADDR + 0x1E)
  350 00000000 3FFFC03E 
                       FIO1CLRU
                               EQU              (FIO_BASE_ADDR + 0x3E)
  351 00000000 3FFFC05E 
                       FIO2CLRU
                               EQU              (FIO_BASE_ADDR + 0x5E)
  352 00000000 3FFFC07E 
                       FIO3CLRU
                               EQU              (FIO_BASE_ADDR + 0x7E)
  353 00000000 3FFFC09E 
                       FIO4CLRU
                               EQU              (FIO_BASE_ADDR + 0x9E)
  354 00000000         
  355 00000000         
  356 00000000         ;/* System Control Block(SCB) modules include Memory Acc
                       elerator Module,
  357 00000000         ;Phase Locked Loop, VPB divider, Power Control, External
                        Interrupt, 
  358 00000000         ;Reset, and Code Security/Debugging */
  359 00000000 E01FC000 
                       SCB_BASE_ADDR
                               EQU              0xE01FC000
  360 00000000         
  361 00000000         ;/* Memory Accelerator Module (MAM) */
  362 00000000 E01FC000 
                       MAMCR   EQU              (SCB_BASE_ADDR + 0x000)
  363 00000000 E01FC004 
                       MAMTIM  EQU              (SCB_BASE_ADDR + 0x004)
  364 00000000 E01FC040 
                       MEMMAP  EQU              (SCB_BASE_ADDR + 0x040)
  365 00000000         
  366 00000000         ;/* Phase Locked Loop (PLL) */
  367 00000000 E01FC080 
                       PLLCON  EQU              (SCB_BASE_ADDR + 0x080)
  368 00000000 E01FC084 
                       PLLCFG  EQU              (SCB_BASE_ADDR + 0x084)
  369 00000000 E01FC088 
                       PLLSTAT EQU              (SCB_BASE_ADDR + 0x088)



ARM Macro Assembler    Page 17 


  370 00000000 E01FC08C 
                       PLLFEED EQU              (SCB_BASE_ADDR + 0x08C)
  371 00000000         
  372 00000000         ;/* Power Control */
  373 00000000 E01FC0C0 
                       PCON    EQU              (SCB_BASE_ADDR + 0x0C0)
  374 00000000 E01FC0C4 
                       PCONP   EQU              (SCB_BASE_ADDR + 0x0C4)
  375 00000000         
  376 00000000         ;/* Clock Divider */
  377 00000000         ;// APBDIV         EQU (SCB_BASE_ADDR + 0x100)
  378 00000000 E01FC104 
                       CCLKCFG EQU              (SCB_BASE_ADDR + 0x104)
  379 00000000 E01FC108 
                       USBCLKCFG
                               EQU              (SCB_BASE_ADDR + 0x108)
  380 00000000 E01FC10C 
                       CLKSRCSEL
                               EQU              (SCB_BASE_ADDR + 0x10C)
  381 00000000 E01FC1A8 
                       PCLKSEL0
                               EQU              (SCB_BASE_ADDR + 0x1A8)
  382 00000000 E01FC1AC 
                       PCLKSEL1
                               EQU              (SCB_BASE_ADDR + 0x1AC)
  383 00000000         
  384 00000000         ;/* External Interrupts */
  385 00000000 E01FC140 
                       EXTINT  EQU              (SCB_BASE_ADDR + 0x140)
  386 00000000 E01FC144 
                       INTWAKE EQU              (SCB_BASE_ADDR + 0x144)
  387 00000000 E01FC148 
                       EXTMODE EQU              (SCB_BASE_ADDR + 0x148)
  388 00000000 E01FC14C 
                       EXTPOLAR
                               EQU              (SCB_BASE_ADDR + 0x14C)
  389 00000000         
  390 00000000         ;/* Reset, reset source identification */
  391 00000000 E01FC180 
                       RSIR    EQU              (SCB_BASE_ADDR + 0x180)
  392 00000000         
  393 00000000         ;/* RSID, code security protection */
  394 00000000 E01FC184 
                       CSPR    EQU              (SCB_BASE_ADDR + 0x184)
  395 00000000         
  396 00000000         ;/* AHB configuration */
  397 00000000 E01FC188 
                       AHBCFG1 EQU              (SCB_BASE_ADDR + 0x188)
  398 00000000 E01FC18C 
                       AHBCFG2 EQU              (SCB_BASE_ADDR + 0x18C)
  399 00000000         
  400 00000000         ;/* System Controls and Status */
  401 00000000 E01FC1A0 
                       SCS     EQU              (SCB_BASE_ADDR + 0x1A0)
  402 00000000         
  403 00000000         ;/* MPMC(EMC) registers, note: all the external memory c
                       ontroller(EMC) registers 
  404 00000000         ; are for LPC24xx only. */
  405 00000000 80000000 



ARM Macro Assembler    Page 18 


                       STATIC_MEM0_BASE
                               EQU              0x80000000
  406 00000000 81000000 
                       STATIC_MEM1_BASE
                               EQU              0x81000000
  407 00000000 82000000 
                       STATIC_MEM2_BASE
                               EQU              0x82000000
  408 00000000 83000000 
                       STATIC_MEM3_BASE
                               EQU              0x83000000
  409 00000000         
  410 00000000 A0000000 
                       DYNAMIC_MEM0_BASE
                               EQU              0xA0000000
  411 00000000 B0000000 
                       DYNAMIC_MEM1_BASE
                               EQU              0xB0000000
  412 00000000 C0000000 
                       DYNAMIC_MEM2_BASE
                               EQU              0xC0000000
  413 00000000 D0000000 
                       DYNAMIC_MEM3_BASE
                               EQU              0xD0000000
  414 00000000         
  415 00000000         ;/* External Memory Controller (EMC) */
  416 00000000 FFE08000 
                       EMC_BASE_ADDR
                               EQU              0xFFE08000
  417 00000000 FFE08000 
                       EMC_CTRL
                               EQU              (EMC_BASE_ADDR + 0x000)
  418 00000000 FFE08004 
                       EMC_STAT
                               EQU              (EMC_BASE_ADDR + 0x004)
  419 00000000 FFE08008 
                       EMC_CONFIG
                               EQU              (EMC_BASE_ADDR + 0x008)
  420 00000000         
  421 00000000         ;/* Dynamic RAM access registers */
  422 00000000 FFE08020 
                       EMC_DYN_CTRL
                               EQU              (EMC_BASE_ADDR + 0x020)
  423 00000000 FFE08024 
                       EMC_DYN_RFSH
                               EQU              (EMC_BASE_ADDR + 0x024)
  424 00000000 FFE08028 
                       EMC_DYN_RD_CFG
                               EQU              (EMC_BASE_ADDR + 0x028)
  425 00000000 FFE08030 
                       EMC_DYN_RP
                               EQU              (EMC_BASE_ADDR + 0x030)
  426 00000000 FFE08034 
                       EMC_DYN_RAS
                               EQU              (EMC_BASE_ADDR + 0x034)
  427 00000000 FFE08038 
                       EMC_DYN_SREX
                               EQU              (EMC_BASE_ADDR + 0x038)
  428 00000000 FFE0803C 



ARM Macro Assembler    Page 19 


                       EMC_DYN_APR
                               EQU              (EMC_BASE_ADDR + 0x03C)
  429 00000000 FFE08040 
                       EMC_DYN_DAL
                               EQU              (EMC_BASE_ADDR + 0x040)
  430 00000000 FFE08044 
                       EMC_DYN_WR
                               EQU              (EMC_BASE_ADDR + 0x044)
  431 00000000 FFE08048 
                       EMC_DYN_RC
                               EQU              (EMC_BASE_ADDR + 0x048)
  432 00000000 FFE0804C 
                       EMC_DYN_RFC
                               EQU              (EMC_BASE_ADDR + 0x04C)
  433 00000000 FFE08050 
                       EMC_DYN_XSR
                               EQU              (EMC_BASE_ADDR + 0x050)
  434 00000000 FFE08054 
                       EMC_DYN_RRD
                               EQU              (EMC_BASE_ADDR + 0x054)
  435 00000000 FFE08058 
                       EMC_DYN_MRD
                               EQU              (EMC_BASE_ADDR + 0x058)
  436 00000000         
  437 00000000 FFE08100 
                       EMC_DYN_CFG0
                               EQU              (EMC_BASE_ADDR + 0x100)
  438 00000000 FFE08104 
                       EMC_DYN_RASCAS0
                               EQU              (EMC_BASE_ADDR + 0x104)
  439 00000000 FFE08140 
                       EMC_DYN_CFG1
                               EQU              (EMC_BASE_ADDR + 0x140)
  440 00000000 FFE08144 
                       EMC_DYN_RASCAS1
                               EQU              (EMC_BASE_ADDR + 0x144)
  441 00000000 FFE08160 
                       EMC_DYN_CFG2
                               EQU              (EMC_BASE_ADDR + 0x160)
  442 00000000 FFE08164 
                       EMC_DYN_RASCAS2
                               EQU              (EMC_BASE_ADDR + 0x164)
  443 00000000 FFE08180 
                       EMC_DYN_CFG3
                               EQU              (EMC_BASE_ADDR + 0x180)
  444 00000000 FFE08184 
                       EMC_DYN_RASCAS3
                               EQU              (EMC_BASE_ADDR + 0x184)
  445 00000000         
  446 00000000         ;/* static RAM access registers */
  447 00000000 FFE08200 
                       EMC_STA_CFG0
                               EQU              (EMC_BASE_ADDR + 0x200)
  448 00000000 FFE08204 
                       EMC_STA_WAITWEN0
                               EQU              (EMC_BASE_ADDR + 0x204)
  449 00000000 FFE08208 
                       EMC_STA_WAITOEN0
                               EQU              (EMC_BASE_ADDR + 0x208)



ARM Macro Assembler    Page 20 


  450 00000000 FFE0820C 
                       EMC_STA_WAITRD0
                               EQU              (EMC_BASE_ADDR + 0x20C)
  451 00000000 FFE08210 
                       EMC_STA_WAITPAGE0
                               EQU              (EMC_BASE_ADDR + 0x210)
  452 00000000 FFE08214 
                       EMC_STA_WAITWR0
                               EQU              (EMC_BASE_ADDR + 0x214)
  453 00000000 FFE08218 
                       EMC_STA_WAITTURN0
                               EQU              (EMC_BASE_ADDR + 0x218)
  454 00000000         
  455 00000000 FFE08220 
                       EMC_STA_CFG1
                               EQU              (EMC_BASE_ADDR + 0x220)
  456 00000000 FFE08224 
                       EMC_STA_WAITWEN1
                               EQU              (EMC_BASE_ADDR + 0x224)
  457 00000000 FFE08228 
                       EMC_STA_WAITOEN1
                               EQU              (EMC_BASE_ADDR + 0x228)
  458 00000000 FFE0822C 
                       EMC_STA_WAITRD1
                               EQU              (EMC_BASE_ADDR + 0x22C)
  459 00000000 FFE08230 
                       EMC_STA_WAITPAGE1
                               EQU              (EMC_BASE_ADDR + 0x230)
  460 00000000 FFE08234 
                       EMC_STA_WAITWR1
                               EQU              (EMC_BASE_ADDR + 0x234)
  461 00000000 FFE08238 
                       EMC_STA_WAITTURN1
                               EQU              (EMC_BASE_ADDR + 0x238)
  462 00000000         
  463 00000000 FFE08240 
                       EMC_STA_CFG2
                               EQU              (EMC_BASE_ADDR + 0x240)
  464 00000000 FFE08244 
                       EMC_STA_WAITWEN2
                               EQU              (EMC_BASE_ADDR + 0x244)
  465 00000000 FFE08248 
                       EMC_STA_WAITOEN2
                               EQU              (EMC_BASE_ADDR + 0x248)
  466 00000000 FFE0824C 
                       EMC_STA_WAITRD2
                               EQU              (EMC_BASE_ADDR + 0x24C)
  467 00000000 FFE08250 
                       EMC_STA_WAITPAGE2
                               EQU              (EMC_BASE_ADDR + 0x250)
  468 00000000 FFE08254 
                       EMC_STA_WAITWR2
                               EQU              (EMC_BASE_ADDR + 0x254)
  469 00000000 FFE08258 
                       EMC_STA_WAITTURN2
                               EQU              (EMC_BASE_ADDR + 0x258)
  470 00000000         
  471 00000000 FFE08260 
                       EMC_STA_CFG3



ARM Macro Assembler    Page 21 


                               EQU              (EMC_BASE_ADDR + 0x260)
  472 00000000 FFE08264 
                       EMC_STA_WAITWEN3
                               EQU              (EMC_BASE_ADDR + 0x264)
  473 00000000 FFE08268 
                       EMC_STA_WAITOEN3
                               EQU              (EMC_BASE_ADDR + 0x268)
  474 00000000 FFE0826C 
                       EMC_STA_WAITRD3
                               EQU              (EMC_BASE_ADDR + 0x26C)
  475 00000000 FFE08270 
                       EMC_STA_WAITPAGE3
                               EQU              (EMC_BASE_ADDR + 0x270)
  476 00000000 FFE08274 
                       EMC_STA_WAITWR3
                               EQU              (EMC_BASE_ADDR + 0x274)
  477 00000000 FFE08278 
                       EMC_STA_WAITTURN3
                               EQU              (EMC_BASE_ADDR + 0x278)
  478 00000000         
  479 00000000 FFE08880 
                       EMC_STA_EXT_WAIT
                               EQU              (EMC_BASE_ADDR + 0x880)
  480 00000000         
  481 00000000         
  482 00000000         ;/* Timer 0 */
  483 00000000 E0004000 
                       TMR0_BASE_ADDR
                               EQU              0xE0004000
  484 00000000 E0004000 
                       T0IR    EQU              (TMR0_BASE_ADDR + 0x00)
  485 00000000 E0004004 
                       T0TCR   EQU              (TMR0_BASE_ADDR + 0x04)
  486 00000000 E0004008 
                       T0TC    EQU              (TMR0_BASE_ADDR + 0x08)
  487 00000000 E000400C 
                       T0PR    EQU              (TMR0_BASE_ADDR + 0x0C)
  488 00000000 E0004010 
                       T0PC    EQU              (TMR0_BASE_ADDR + 0x10)
  489 00000000 E0004014 
                       T0MCR   EQU              (TMR0_BASE_ADDR + 0x14)
  490 00000000 E0004018 
                       T0MR0   EQU              (TMR0_BASE_ADDR + 0x18)
  491 00000000 E000401C 
                       T0MR1   EQU              (TMR0_BASE_ADDR + 0x1C)
  492 00000000 E0004020 
                       T0MR2   EQU              (TMR0_BASE_ADDR + 0x20)
  493 00000000 E0004024 
                       T0MR3   EQU              (TMR0_BASE_ADDR + 0x24)
  494 00000000 E0004028 
                       T0CCR   EQU              (TMR0_BASE_ADDR + 0x28)
  495 00000000 E000402C 
                       T0CR0   EQU              (TMR0_BASE_ADDR + 0x2C)
  496 00000000 E0004030 
                       T0CR1   EQU              (TMR0_BASE_ADDR + 0x30)
  497 00000000 E0004034 
                       T0CR2   EQU              (TMR0_BASE_ADDR + 0x34)
  498 00000000 E0004038 
                       T0CR3   EQU              (TMR0_BASE_ADDR + 0x38)



ARM Macro Assembler    Page 22 


  499 00000000 E000403C 
                       T0EMR   EQU              (TMR0_BASE_ADDR + 0x3C)
  500 00000000 E0004070 
                       T0CTCR  EQU              (TMR0_BASE_ADDR + 0x70)
  501 00000000         
  502 00000000         ;/* Timer 1 */
  503 00000000 E0008000 
                       TMR1_BASE_ADDR
                               EQU              0xE0008000
  504 00000000 E0008000 
                       T1IR    EQU              (TMR1_BASE_ADDR + 0x00)
  505 00000000 E0008004 
                       T1TCR   EQU              (TMR1_BASE_ADDR + 0x04)
  506 00000000 E0008008 
                       T1TC    EQU              (TMR1_BASE_ADDR + 0x08)
  507 00000000 E000800C 
                       T1PR    EQU              (TMR1_BASE_ADDR + 0x0C)
  508 00000000 E0008010 
                       T1PC    EQU              (TMR1_BASE_ADDR + 0x10)
  509 00000000 E0008014 
                       T1MCR   EQU              (TMR1_BASE_ADDR + 0x14)
  510 00000000 E0008018 
                       T1MR0   EQU              (TMR1_BASE_ADDR + 0x18)
  511 00000000 E000801C 
                       T1MR1   EQU              (TMR1_BASE_ADDR + 0x1C)
  512 00000000 E0008020 
                       T1MR2   EQU              (TMR1_BASE_ADDR + 0x20)
  513 00000000 E0008024 
                       T1MR3   EQU              (TMR1_BASE_ADDR + 0x24)
  514 00000000 E0008028 
                       T1CCR   EQU              (TMR1_BASE_ADDR + 0x28)
  515 00000000 E000802C 
                       T1CR0   EQU              (TMR1_BASE_ADDR + 0x2C)
  516 00000000 E0008030 
                       T1CR1   EQU              (TMR1_BASE_ADDR + 0x30)
  517 00000000 E0008034 
                       T1CR2   EQU              (TMR1_BASE_ADDR + 0x34)
  518 00000000 E0008038 
                       T1CR3   EQU              (TMR1_BASE_ADDR + 0x38)
  519 00000000 E000803C 
                       T1EMR   EQU              (TMR1_BASE_ADDR + 0x3C)
  520 00000000 E0008070 
                       T1CTCR  EQU              (TMR1_BASE_ADDR + 0x70)
  521 00000000         
  522 00000000         ;/* Timer 2 */
  523 00000000 E0070000 
                       TMR2_BASE_ADDR
                               EQU              0xE0070000
  524 00000000 E0070000 
                       T2IR    EQU              (TMR2_BASE_ADDR + 0x00)
  525 00000000 E0070004 
                       T2TCR   EQU              (TMR2_BASE_ADDR + 0x04)
  526 00000000 E0070008 
                       T2TC    EQU              (TMR2_BASE_ADDR + 0x08)
  527 00000000 E007000C 
                       T2PR    EQU              (TMR2_BASE_ADDR + 0x0C)
  528 00000000 E0070010 
                       T2PC    EQU              (TMR2_BASE_ADDR + 0x10)
  529 00000000 E0070014 



ARM Macro Assembler    Page 23 


                       T2MCR   EQU              (TMR2_BASE_ADDR + 0x14)
  530 00000000 E0070018 
                       T2MR0   EQU              (TMR2_BASE_ADDR + 0x18)
  531 00000000 E007001C 
                       T2MR1   EQU              (TMR2_BASE_ADDR + 0x1C)
  532 00000000 E0070020 
                       T2MR2   EQU              (TMR2_BASE_ADDR + 0x20)
  533 00000000 E0070024 
                       T2MR3   EQU              (TMR2_BASE_ADDR + 0x24)
  534 00000000 E0070028 
                       T2CCR   EQU              (TMR2_BASE_ADDR + 0x28)
  535 00000000 E007002C 
                       T2CR0   EQU              (TMR2_BASE_ADDR + 0x2C)
  536 00000000 E0070030 
                       T2CR1   EQU              (TMR2_BASE_ADDR + 0x30)
  537 00000000 E0070034 
                       T2CR2   EQU              (TMR2_BASE_ADDR + 0x34)
  538 00000000 E0070038 
                       T2CR3   EQU              (TMR2_BASE_ADDR + 0x38)
  539 00000000 E007003C 
                       T2EMR   EQU              (TMR2_BASE_ADDR + 0x3C)
  540 00000000 E0070070 
                       T2CTCR  EQU              (TMR2_BASE_ADDR + 0x70)
  541 00000000         
  542 00000000         ;/* Timer 3 */
  543 00000000 E0074000 
                       TMR3_BASE_ADDR
                               EQU              0xE0074000
  544 00000000 E0074000 
                       T3IR    EQU              (TMR3_BASE_ADDR + 0x00)
  545 00000000 E0074004 
                       T3TCR   EQU              (TMR3_BASE_ADDR + 0x04)
  546 00000000 E0074008 
                       T3TC    EQU              (TMR3_BASE_ADDR + 0x08)
  547 00000000 E007400C 
                       T3PR    EQU              (TMR3_BASE_ADDR + 0x0C)
  548 00000000 E0074010 
                       T3PC    EQU              (TMR3_BASE_ADDR + 0x10)
  549 00000000 E0074014 
                       T3MCR   EQU              (TMR3_BASE_ADDR + 0x14)
  550 00000000 E0074018 
                       T3MR0   EQU              (TMR3_BASE_ADDR + 0x18)
  551 00000000 E007401C 
                       T3MR1   EQU              (TMR3_BASE_ADDR + 0x1C)
  552 00000000 E0074020 
                       T3MR2   EQU              (TMR3_BASE_ADDR + 0x20)
  553 00000000 E0074024 
                       T3MR3   EQU              (TMR3_BASE_ADDR + 0x24)
  554 00000000 E0074028 
                       T3CCR   EQU              (TMR3_BASE_ADDR + 0x28)
  555 00000000 E007402C 
                       T3CR0   EQU              (TMR3_BASE_ADDR + 0x2C)
  556 00000000 E0074030 
                       T3CR1   EQU              (TMR3_BASE_ADDR + 0x30)
  557 00000000 E0074034 
                       T3CR2   EQU              (TMR3_BASE_ADDR + 0x34)
  558 00000000 E0074038 
                       T3CR3   EQU              (TMR3_BASE_ADDR + 0x38)
  559 00000000 E007403C 



ARM Macro Assembler    Page 24 


                       T3EMR   EQU              (TMR3_BASE_ADDR + 0x3C)
  560 00000000 E0074070 
                       T3CTCR  EQU              (TMR3_BASE_ADDR + 0x70)
  561 00000000         
  562 00000000         
  563 00000000         ;/* Pulse Width Modulator (PWM) */
  564 00000000 E0014000 
                       PWM0_BASE_ADDR
                               EQU              0xE0014000
  565 00000000 E0014000 
                       PWM0IR  EQU              (PWM0_BASE_ADDR + 0x00)
  566 00000000 E0014004 
                       PWM0TCR EQU              (PWM0_BASE_ADDR + 0x04)
  567 00000000 E0014008 
                       PWM0TC  EQU              (PWM0_BASE_ADDR + 0x08)
  568 00000000 E001400C 
                       PWM0PR  EQU              (PWM0_BASE_ADDR + 0x0C)
  569 00000000 E0014010 
                       PWM0PC  EQU              (PWM0_BASE_ADDR + 0x10)
  570 00000000 E0014014 
                       PWM0MCR EQU              (PWM0_BASE_ADDR + 0x14)
  571 00000000 E0014018 
                       PWM0MR0 EQU              (PWM0_BASE_ADDR + 0x18)
  572 00000000 E001401C 
                       PWM0MR1 EQU              (PWM0_BASE_ADDR + 0x1C)
  573 00000000 E0014020 
                       PWM0MR2 EQU              (PWM0_BASE_ADDR + 0x20)
  574 00000000 E0014024 
                       PWM0MR3 EQU              (PWM0_BASE_ADDR + 0x24)
  575 00000000 E0014028 
                       PWM0CCR EQU              (PWM0_BASE_ADDR + 0x28)
  576 00000000 E001402C 
                       PWM0CR0 EQU              (PWM0_BASE_ADDR + 0x2C)
  577 00000000 E0014030 
                       PWM0CR1 EQU              (PWM0_BASE_ADDR + 0x30)
  578 00000000 E0014034 
                       PWM0CR2 EQU              (PWM0_BASE_ADDR + 0x34)
  579 00000000 E0014038 
                       PWM0CR3 EQU              (PWM0_BASE_ADDR + 0x38)
  580 00000000 E001403C 
                       PWM0EMR EQU              (PWM0_BASE_ADDR + 0x3C)
  581 00000000 E0014040 
                       PWM0MR4 EQU              (PWM0_BASE_ADDR + 0x40)
  582 00000000 E0014044 
                       PWM0MR5 EQU              (PWM0_BASE_ADDR + 0x44)
  583 00000000 E0014048 
                       PWM0MR6 EQU              (PWM0_BASE_ADDR + 0x48)
  584 00000000 E001404C 
                       PWM0PCR EQU              (PWM0_BASE_ADDR + 0x4C)
  585 00000000 E0014050 
                       PWM0LER EQU              (PWM0_BASE_ADDR + 0x50)
  586 00000000 E0014070 
                       PWM0CTCR
                               EQU              (PWM0_BASE_ADDR + 0x70)
  587 00000000         
  588 00000000 E0018000 
                       PWM1_BASE_ADDR
                               EQU              0xE0018000
  589 00000000 E0018000 



ARM Macro Assembler    Page 25 


                       PWM1IR  EQU              (PWM1_BASE_ADDR + 0x00)
  590 00000000 E0018004 
                       PWM1TCR EQU              (PWM1_BASE_ADDR + 0x04)
  591 00000000 E0018008 
                       PWM1TC  EQU              (PWM1_BASE_ADDR + 0x08)
  592 00000000 E001800C 
                       PWM1PR  EQU              (PWM1_BASE_ADDR + 0x0C)
  593 00000000 E0018010 
                       PWM1PC  EQU              (PWM1_BASE_ADDR + 0x10)
  594 00000000 E0018014 
                       PWM1MCR EQU              (PWM1_BASE_ADDR + 0x14)
  595 00000000 E0018018 
                       PWM1MR0 EQU              (PWM1_BASE_ADDR + 0x18)
  596 00000000 E001801C 
                       PWM1MR1 EQU              (PWM1_BASE_ADDR + 0x1C)
  597 00000000 E0018020 
                       PWM1MR2 EQU              (PWM1_BASE_ADDR + 0x20)
  598 00000000 E0018024 
                       PWM1MR3 EQU              (PWM1_BASE_ADDR + 0x24)
  599 00000000 E0018028 
                       PWM1CCR EQU              (PWM1_BASE_ADDR + 0x28)
  600 00000000 E001802C 
                       PWM1CR0 EQU              (PWM1_BASE_ADDR + 0x2C)
  601 00000000 E0018030 
                       PWM1CR1 EQU              (PWM1_BASE_ADDR + 0x30)
  602 00000000 E0018034 
                       PWM1CR2 EQU              (PWM1_BASE_ADDR + 0x34)
  603 00000000 E0018038 
                       PWM1CR3 EQU              (PWM1_BASE_ADDR + 0x38)
  604 00000000 E001803C 
                       PWM1EMR EQU              (PWM1_BASE_ADDR + 0x3C)
  605 00000000 E0018040 
                       PWM1MR4 EQU              (PWM1_BASE_ADDR + 0x40)
  606 00000000 E0018044 
                       PWM1MR5 EQU              (PWM1_BASE_ADDR + 0x44)
  607 00000000 E0018048 
                       PWM1MR6 EQU              (PWM1_BASE_ADDR + 0x48)
  608 00000000 E001804C 
                       PWM1PCR EQU              (PWM1_BASE_ADDR + 0x4C)
  609 00000000 E0018050 
                       PWM1LER EQU              (PWM1_BASE_ADDR + 0x50)
  610 00000000 E0018070 
                       PWM1CTCR
                               EQU              (PWM1_BASE_ADDR + 0x70)
  611 00000000         
  612 00000000         
  613 00000000         ;/* Universal Asynchronous Receiver Transmitter 0 (UART0
                       ) */
  614 00000000 E000C000 
                       UART0_BASE_ADDR
                               EQU              0xE000C000
  615 00000000 E000C000 
                       U0RBR   EQU              (UART0_BASE_ADDR + 0x00)
  616 00000000 E000C000 
                       U0THR   EQU              (UART0_BASE_ADDR + 0x00)
  617 00000000 E000C000 
                       U0DLL   EQU              (UART0_BASE_ADDR + 0x00)
  618 00000000 E000C004 
                       U0DLM   EQU              (UART0_BASE_ADDR + 0x04)



ARM Macro Assembler    Page 26 


  619 00000000 E000C004 
                       U0IER   EQU              (UART0_BASE_ADDR + 0x04)
  620 00000000 E000C008 
                       U0IIR   EQU              (UART0_BASE_ADDR + 0x08)
  621 00000000 E000C008 
                       U0FCR   EQU              (UART0_BASE_ADDR + 0x08)
  622 00000000 E000C00C 
                       U0LCR   EQU              (UART0_BASE_ADDR + 0x0C)
  623 00000000 E000C014 
                       U0LSR   EQU              (UART0_BASE_ADDR + 0x14)
  624 00000000 E000C01C 
                       U0SCR   EQU              (UART0_BASE_ADDR + 0x1C)
  625 00000000 E000C020 
                       U0ACR   EQU              (UART0_BASE_ADDR + 0x20)
  626 00000000 E000C024 
                       U0ICR   EQU              (UART0_BASE_ADDR + 0x24)
  627 00000000 E000C028 
                       U0FDR   EQU              (UART0_BASE_ADDR + 0x28)
  628 00000000 E000C030 
                       U0TER   EQU              (UART0_BASE_ADDR + 0x30)
  629 00000000         
  630 00000000         ;/* Universal Asynchronous Receiver Transmitter 1 (UART1
                       ) */
  631 00000000 E0010000 
                       UART1_BASE_ADDR
                               EQU              0xE0010000
  632 00000000 E0010000 
                       U1RBR   EQU              (UART1_BASE_ADDR + 0x00)
  633 00000000 E0010000 
                       U1THR   EQU              (UART1_BASE_ADDR + 0x00)
  634 00000000 E0010000 
                       U1DLL   EQU              (UART1_BASE_ADDR + 0x00)
  635 00000000 E0010004 
                       U1DLM   EQU              (UART1_BASE_ADDR + 0x04)
  636 00000000 E0010004 
                       U1IER   EQU              (UART1_BASE_ADDR + 0x04)
  637 00000000 E0010008 
                       U1IIR   EQU              (UART1_BASE_ADDR + 0x08)
  638 00000000 E0010008 
                       U1FCR   EQU              (UART1_BASE_ADDR + 0x08)
  639 00000000 E001000C 
                       U1LCR   EQU              (UART1_BASE_ADDR + 0x0C)
  640 00000000 E0010010 
                       U1MCR   EQU              (UART1_BASE_ADDR + 0x10)
  641 00000000 E0010014 
                       U1LSR   EQU              (UART1_BASE_ADDR + 0x14)
  642 00000000 E0010018 
                       U1MSR   EQU              (UART1_BASE_ADDR + 0x18)
  643 00000000 E001001C 
                       U1SCR   EQU              (UART1_BASE_ADDR + 0x1C)
  644 00000000 E0010020 
                       U1ACR   EQU              (UART1_BASE_ADDR + 0x20)
  645 00000000 E0010028 
                       U1FDR   EQU              (UART1_BASE_ADDR + 0x28)
  646 00000000 E0010030 
                       U1TER   EQU              (UART1_BASE_ADDR + 0x30)
  647 00000000         
  648 00000000         ;/* Universal Asynchronous Receiver Transmitter 2 (UART2
                       ) */



ARM Macro Assembler    Page 27 


  649 00000000 E0078000 
                       UART2_BASE_ADDR
                               EQU              0xE0078000
  650 00000000 E0078000 
                       U2RBR   EQU              (UART2_BASE_ADDR + 0x00)
  651 00000000 E0078000 
                       U2THR   EQU              (UART2_BASE_ADDR + 0x00)
  652 00000000 E0078000 
                       U2DLL   EQU              (UART2_BASE_ADDR + 0x00)
  653 00000000 E0078004 
                       U2DLM   EQU              (UART2_BASE_ADDR + 0x04)
  654 00000000 E0078004 
                       U2IER   EQU              (UART2_BASE_ADDR + 0x04)
  655 00000000 E0078008 
                       U2IIR   EQU              (UART2_BASE_ADDR + 0x08)
  656 00000000 E0078008 
                       U2FCR   EQU              (UART2_BASE_ADDR + 0x08)
  657 00000000 E007800C 
                       U2LCR   EQU              (UART2_BASE_ADDR + 0x0C)
  658 00000000 E0078014 
                       U2LSR   EQU              (UART2_BASE_ADDR + 0x14)
  659 00000000 E007801C 
                       U2SCR   EQU              (UART2_BASE_ADDR + 0x1C)
  660 00000000 E0078020 
                       U2ACR   EQU              (UART2_BASE_ADDR + 0x20)
  661 00000000 E0078024 
                       U2ICR   EQU              (UART2_BASE_ADDR + 0x24)
  662 00000000 E0078028 
                       U2FDR   EQU              (UART2_BASE_ADDR + 0x28)
  663 00000000 E0078030 
                       U2TER   EQU              (UART2_BASE_ADDR + 0x30)
  664 00000000         
  665 00000000         ;/* Universal Asynchronous Receiver Transmitter 3 (UART3
                       ) */
  666 00000000 E007C000 
                       UART3_BASE_ADDR
                               EQU              0xE007C000
  667 00000000 E007C000 
                       U3RBR   EQU              (UART3_BASE_ADDR + 0x00)
  668 00000000 E007C000 
                       U3THR   EQU              (UART3_BASE_ADDR + 0x00)
  669 00000000 E007C000 
                       U3DLL   EQU              (UART3_BASE_ADDR + 0x00)
  670 00000000 E007C004 
                       U3DLM   EQU              (UART3_BASE_ADDR + 0x04)
  671 00000000 E007C004 
                       U3IER   EQU              (UART3_BASE_ADDR + 0x04)
  672 00000000 E007C008 
                       U3IIR   EQU              (UART3_BASE_ADDR + 0x08)
  673 00000000 E007C008 
                       U3FCR   EQU              (UART3_BASE_ADDR + 0x08)
  674 00000000 E007C00C 
                       U3LCR   EQU              (UART3_BASE_ADDR + 0x0C)
  675 00000000 E007C014 
                       U3LSR   EQU              (UART3_BASE_ADDR + 0x14)
  676 00000000 E007C01C 
                       U3SCR   EQU              (UART3_BASE_ADDR + 0x1C)
  677 00000000 E007C020 
                       U3ACR   EQU              (UART3_BASE_ADDR + 0x20)



ARM Macro Assembler    Page 28 


  678 00000000 E007C024 
                       U3ICR   EQU              (UART3_BASE_ADDR + 0x24)
  679 00000000 E007C028 
                       U3FDR   EQU              (UART3_BASE_ADDR + 0x28)
  680 00000000 E007C030 
                       U3TER   EQU              (UART3_BASE_ADDR + 0x30)
  681 00000000         
  682 00000000         ;/* I2C Interface 0 */
  683 00000000 E001C000 
                       I2C0_BASE_ADDR
                               EQU              0xE001C000
  684 00000000 E001C000 
                       I20CONSET
                               EQU              (I2C0_BASE_ADDR + 0x00)
  685 00000000 E001C004 
                       I20STAT EQU              (I2C0_BASE_ADDR + 0x04)
  686 00000000 E001C008 
                       I20DAT  EQU              (I2C0_BASE_ADDR + 0x08)
  687 00000000 E001C00C 
                       I20ADR  EQU              (I2C0_BASE_ADDR + 0x0C)
  688 00000000 E001C010 
                       I20SCLH EQU              (I2C0_BASE_ADDR + 0x10)
  689 00000000 E001C014 
                       I20SCLL EQU              (I2C0_BASE_ADDR + 0x14)
  690 00000000 E001C018 
                       I20CONCLR
                               EQU              (I2C0_BASE_ADDR + 0x18)
  691 00000000         
  692 00000000         ;/* I2C Interface 1 */
  693 00000000 E005C000 
                       I2C1_BASE_ADDR
                               EQU              0xE005C000
  694 00000000 E005C000 
                       I21CONSET
                               EQU              (I2C1_BASE_ADDR + 0x00)
  695 00000000 E005C004 
                       I21STAT EQU              (I2C1_BASE_ADDR + 0x04)
  696 00000000 E005C008 
                       I21DAT  EQU              (I2C1_BASE_ADDR + 0x08)
  697 00000000 E005C00C 
                       I21ADR  EQU              (I2C1_BASE_ADDR + 0x0C)
  698 00000000 E005C010 
                       I21SCLH EQU              (I2C1_BASE_ADDR + 0x10)
  699 00000000 E005C014 
                       I21SCLL EQU              (I2C1_BASE_ADDR + 0x14)
  700 00000000 E005C018 
                       I21CONCLR
                               EQU              (I2C1_BASE_ADDR + 0x18)
  701 00000000         
  702 00000000         ;/* I2C Interface 2 */
  703 00000000 E0080000 
                       I2C2_BASE_ADDR
                               EQU              0xE0080000
  704 00000000 E0080000 
                       I22CONSET
                               EQU              (I2C2_BASE_ADDR + 0x00)
  705 00000000 E0080004 
                       I22STAT EQU              (I2C2_BASE_ADDR + 0x04)
  706 00000000 E0080008 



ARM Macro Assembler    Page 29 


                       I22DAT  EQU              (I2C2_BASE_ADDR + 0x08)
  707 00000000 E008000C 
                       I22ADR  EQU              (I2C2_BASE_ADDR + 0x0C)
  708 00000000 E0080010 
                       I22SCLH EQU              (I2C2_BASE_ADDR + 0x10)
  709 00000000 E0080014 
                       I22SCLL EQU              (I2C2_BASE_ADDR + 0x14)
  710 00000000 E0080018 
                       I22CONCLR
                               EQU              (I2C2_BASE_ADDR + 0x18)
  711 00000000         
  712 00000000         ;/* SPI0 (Serial Peripheral Interface 0) */
  713 00000000 E0020000 
                       SPI0_BASE_ADDR
                               EQU              0xE0020000
  714 00000000 E0020000 
                       S0SPCR  EQU              (SPI0_BASE_ADDR + 0x00)
  715 00000000 E0020004 
                       S0SPSR  EQU              (SPI0_BASE_ADDR + 0x04)
  716 00000000 E0020008 
                       S0SPDR  EQU              (SPI0_BASE_ADDR + 0x08)
  717 00000000 E002000C 
                       S0SPCCR EQU              (SPI0_BASE_ADDR + 0x0C)
  718 00000000 E002001C 
                       S0SPINT EQU              (SPI0_BASE_ADDR + 0x1C)
  719 00000000         
  720 00000000         ;/* SSP0 Controller */
  721 00000000 E0068000 
                       SSP0_BASE_ADDR
                               EQU              0xE0068000
  722 00000000 E0068000 
                       SSP0CR0 EQU              (SSP0_BASE_ADDR + 0x00)
  723 00000000 E0068004 
                       SSP0CR1 EQU              (SSP0_BASE_ADDR + 0x04)
  724 00000000 E0068008 
                       SSP0DR  EQU              (SSP0_BASE_ADDR + 0x08)
  725 00000000 E006800C 
                       SSP0SR  EQU              (SSP0_BASE_ADDR + 0x0C)
  726 00000000 E0068010 
                       SSP0CPSR
                               EQU              (SSP0_BASE_ADDR + 0x10)
  727 00000000 E0068014 
                       SSP0IMSC
                               EQU              (SSP0_BASE_ADDR + 0x14)
  728 00000000 E0068018 
                       SSP0RIS EQU              (SSP0_BASE_ADDR + 0x18)
  729 00000000 E006801C 
                       SSP0MIS EQU              (SSP0_BASE_ADDR + 0x1C)
  730 00000000 E0068020 
                       SSP0ICR EQU              (SSP0_BASE_ADDR + 0x20)
  731 00000000 E0068024 
                       SSP0DMACR
                               EQU              (SSP0_BASE_ADDR + 0x24)
  732 00000000         
  733 00000000         ;/* SSP1 Controller */
  734 00000000 E0030000 
                       SSP1_BASE_ADDR
                               EQU              0xE0030000
  735 00000000 E0030000 



ARM Macro Assembler    Page 30 


                       SSP1CR0 EQU              (SSP1_BASE_ADDR + 0x00)
  736 00000000 E0030004 
                       SSP1CR1 EQU              (SSP1_BASE_ADDR + 0x04)
  737 00000000 E0030008 
                       SSP1DR  EQU              (SSP1_BASE_ADDR + 0x08)
  738 00000000 E003000C 
                       SSP1SR  EQU              (SSP1_BASE_ADDR + 0x0C)
  739 00000000 E0030010 
                       SSP1CPSR
                               EQU              (SSP1_BASE_ADDR + 0x10)
  740 00000000 E0030014 
                       SSP1IMSC
                               EQU              (SSP1_BASE_ADDR + 0x14)
  741 00000000 E0030018 
                       SSP1RIS EQU              (SSP1_BASE_ADDR + 0x18)
  742 00000000 E003001C 
                       SSP1MIS EQU              (SSP1_BASE_ADDR + 0x1C)
  743 00000000 E0030020 
                       SSP1ICR EQU              (SSP1_BASE_ADDR + 0x20)
  744 00000000 E0030024 
                       SSP1DMACR
                               EQU              (SSP1_BASE_ADDR + 0x24)
  745 00000000         
  746 00000000         
  747 00000000         ;/* Real Time Clock */
  748 00000000 E0024000 
                       RTC_BASE_ADDR
                               EQU              0xE0024000
  749 00000000 E0024000 
                       RTC_ILR EQU              (RTC_BASE_ADDR + 0x00)
  750 00000000 E0024004 
                       RTC_CTC EQU              (RTC_BASE_ADDR + 0x04)
  751 00000000 E0024008 
                       RTC_CCR EQU              (RTC_BASE_ADDR + 0x08)
  752 00000000 E002400C 
                       RTC_CIIR
                               EQU              (RTC_BASE_ADDR + 0x0C)
  753 00000000 E0024010 
                       RTC_AMR EQU              (RTC_BASE_ADDR + 0x10)
  754 00000000 E0024014 
                       RTC_CTIME0
                               EQU              (RTC_BASE_ADDR + 0x14)
  755 00000000 E0024018 
                       RTC_CTIME1
                               EQU              (RTC_BASE_ADDR + 0x18)
  756 00000000 E002401C 
                       RTC_CTIME2
                               EQU              (RTC_BASE_ADDR + 0x1C)
  757 00000000 E0024020 
                       RTC_SEC EQU              (RTC_BASE_ADDR + 0x20)
  758 00000000 E0024024 
                       RTC_MIN EQU              (RTC_BASE_ADDR + 0x24)
  759 00000000 E0024028 
                       RTC_HOUR
                               EQU              (RTC_BASE_ADDR + 0x28)
  760 00000000 E002402C 
                       RTC_DOM EQU              (RTC_BASE_ADDR + 0x2C)
  761 00000000 E0024030 
                       RTC_DOW EQU              (RTC_BASE_ADDR + 0x30)



ARM Macro Assembler    Page 31 


  762 00000000 E0024034 
                       RTC_DOY EQU              (RTC_BASE_ADDR + 0x34)
  763 00000000 E0024038 
                       RTC_MONTH
                               EQU              (RTC_BASE_ADDR + 0x38)
  764 00000000 E002403C 
                       RTC_YEAR
                               EQU              (RTC_BASE_ADDR + 0x3C)
  765 00000000 E0024040 
                       RTC_CISS
                               EQU              (RTC_BASE_ADDR + 0x40)
  766 00000000 E0024060 
                       RTC_ALSEC
                               EQU              (RTC_BASE_ADDR + 0x60)
  767 00000000 E0024064 
                       RTC_ALMIN
                               EQU              (RTC_BASE_ADDR + 0x64)
  768 00000000 E0024068 
                       RTC_ALHOUR
                               EQU              (RTC_BASE_ADDR + 0x68)
  769 00000000 E002406C 
                       RTC_ALDOM
                               EQU              (RTC_BASE_ADDR + 0x6C)
  770 00000000 E0024070 
                       RTC_ALDOW
                               EQU              (RTC_BASE_ADDR + 0x70)
  771 00000000 E0024074 
                       RTC_ALDOY
                               EQU              (RTC_BASE_ADDR + 0x74)
  772 00000000 E0024078 
                       RTC_ALMON
                               EQU              (RTC_BASE_ADDR + 0x78)
  773 00000000 E002407C 
                       RTC_ALYEAR
                               EQU              (RTC_BASE_ADDR + 0x7C)
  774 00000000 E0024080 
                       RTC_PREINT
                               EQU              (RTC_BASE_ADDR + 0x80)
  775 00000000 E0024084 
                       RTC_PREFRAC
                               EQU              (RTC_BASE_ADDR + 0x84)
  776 00000000         
  777 00000000         
  778 00000000         ;/* A/D Converter 0 (AD0) */
  779 00000000 E0034000 
                       AD0_BASE_ADDR
                               EQU              0xE0034000
  780 00000000 E0034000 
                       AD0CR   EQU              (AD0_BASE_ADDR + 0x00)
  781 00000000 E0034004 
                       AD0GDR  EQU              (AD0_BASE_ADDR + 0x04)
  782 00000000 E003400C 
                       AD0INTEN
                               EQU              (AD0_BASE_ADDR + 0x0C)
  783 00000000 E0034010 
                       AD0DR0  EQU              (AD0_BASE_ADDR + 0x10)
  784 00000000 E0034014 
                       AD0DR1  EQU              (AD0_BASE_ADDR + 0x14)
  785 00000000 E0034018 



ARM Macro Assembler    Page 32 


                       AD0DR2  EQU              (AD0_BASE_ADDR + 0x18)
  786 00000000 E003401C 
                       AD0DR3  EQU              (AD0_BASE_ADDR + 0x1C)
  787 00000000 E0034020 
                       AD0DR4  EQU              (AD0_BASE_ADDR + 0x20)
  788 00000000 E0034024 
                       AD0DR5  EQU              (AD0_BASE_ADDR + 0x24)
  789 00000000 E0034028 
                       AD0DR6  EQU              (AD0_BASE_ADDR + 0x28)
  790 00000000 E003402C 
                       AD0DR7  EQU              (AD0_BASE_ADDR + 0x2C)
  791 00000000 E0034030 
                       AD0STAT EQU              (AD0_BASE_ADDR + 0x30)
  792 00000000         
  793 00000000         
  794 00000000         ;/* D/A Converter */
  795 00000000 E006C000 
                       DAC_BASE_ADDR
                               EQU              0xE006C000
  796 00000000 E006C000 
                       DACR    EQU              (DAC_BASE_ADDR + 0x00)
  797 00000000         
  798 00000000         
  799 00000000         ;/* Watchdog */
  800 00000000 E0000000 
                       WDG_BASE_ADDR
                               EQU              0xE0000000
  801 00000000 E0000000 
                       WDMOD   EQU              (WDG_BASE_ADDR + 0x00)
  802 00000000 E0000004 
                       WDTC    EQU              (WDG_BASE_ADDR + 0x04)
  803 00000000 E0000008 
                       WDFEED  EQU              (WDG_BASE_ADDR + 0x08)
  804 00000000 E000000C 
                       WDTV    EQU              (WDG_BASE_ADDR + 0x0C)
  805 00000000 E0000010 
                       WDCLKSEL
                               EQU              (WDG_BASE_ADDR + 0x10)
  806 00000000         
  807 00000000         ;/* CAN CONTROLLERS AND ACCEPTANCE FILTER */
  808 00000000 E003C000 
                       CAN_ACCEPT_BASE_ADDR
                               EQU              0xE003C000
  809 00000000 E003C000 
                       CAN_AFMR
                               EQU              (CAN_ACCEPT_BASE_ADDR + 0x00)
  810 00000000 E003C004 
                       CAN_SFF_SA
                               EQU              (CAN_ACCEPT_BASE_ADDR + 0x04)
  811 00000000 E003C008 
                       CAN_SFF_GRP_SA
                               EQU              (CAN_ACCEPT_BASE_ADDR + 0x08)
  812 00000000 E003C00C 
                       CAN_EFF_SA
                               EQU              (CAN_ACCEPT_BASE_ADDR + 0x0C)
  813 00000000 E003C010 
                       CAN_EFF_GRP_SA
                               EQU              (CAN_ACCEPT_BASE_ADDR + 0x10)
  814 00000000 E003C014 



ARM Macro Assembler    Page 33 


                       CAN_EOT EQU              (CAN_ACCEPT_BASE_ADDR + 0x14)
  815 00000000 E003C018 
                       CAN_LUT_ERR_ADR
                               EQU              (CAN_ACCEPT_BASE_ADDR + 0x18)
  816 00000000 E003C01C 
                       CAN_LUT_ERR
                               EQU              (CAN_ACCEPT_BASE_ADDR + 0x1C)
  817 00000000         
  818 00000000 E0040000 
                       CAN_CENTRAL_BASE_ADDR
                               EQU              0xE0040000
  819 00000000 E0040000 
                       CAN_TX_SR
                               EQU              (CAN_CENTRAL_BASE_ADDR + 0x00)
  820 00000000 E0040004 
                       CAN_RX_SR
                               EQU              (CAN_CENTRAL_BASE_ADDR + 0x04)
  821 00000000 E0040008 
                       CAN_MSR EQU              (CAN_CENTRAL_BASE_ADDR + 0x08)
  822 00000000         
  823 00000000 E0044000 
                       CAN1_BASE_ADDR
                               EQU              0xE0044000
  824 00000000 E0044000 
                       CAN1MOD EQU              (CAN1_BASE_ADDR + 0x00)
  825 00000000 E0044004 
                       CAN1CMR EQU              (CAN1_BASE_ADDR + 0x04)
  826 00000000 E0044008 
                       CAN1GSR EQU              (CAN1_BASE_ADDR + 0x08)
  827 00000000 E004400C 
                       CAN1ICR EQU              (CAN1_BASE_ADDR + 0x0C)
  828 00000000 E0044010 
                       CAN1IER EQU              (CAN1_BASE_ADDR + 0x10)
  829 00000000 E0044014 
                       CAN1BTR EQU              (CAN1_BASE_ADDR + 0x14)
  830 00000000 E0044018 
                       CAN1EWL EQU              (CAN1_BASE_ADDR + 0x18)
  831 00000000 E004401C 
                       CAN1SR  EQU              (CAN1_BASE_ADDR + 0x1C)
  832 00000000 E0044020 
                       CAN1RFS EQU              (CAN1_BASE_ADDR + 0x20)
  833 00000000 E0044024 
                       CAN1RID EQU              (CAN1_BASE_ADDR + 0x24)
  834 00000000 E0044028 
                       CAN1RDA EQU              (CAN1_BASE_ADDR + 0x28)
  835 00000000 E004402C 
                       CAN1RDB EQU              (CAN1_BASE_ADDR + 0x2C)
  836 00000000         
  837 00000000 E0044030 
                       CAN1TFI1
                               EQU              (CAN1_BASE_ADDR + 0x30)
  838 00000000 E0044034 
                       CAN1TID1
                               EQU              (CAN1_BASE_ADDR + 0x34)
  839 00000000 E0044038 
                       CAN1TDA1
                               EQU              (CAN1_BASE_ADDR + 0x38)
  840 00000000 E004403C 
                       CAN1TDB1



ARM Macro Assembler    Page 34 


                               EQU              (CAN1_BASE_ADDR + 0x3C)
  841 00000000 E0044040 
                       CAN1TFI2
                               EQU              (CAN1_BASE_ADDR + 0x40)
  842 00000000 E0044044 
                       CAN1TID2
                               EQU              (CAN1_BASE_ADDR + 0x44)
  843 00000000 E0044048 
                       CAN1TDA2
                               EQU              (CAN1_BASE_ADDR + 0x48)
  844 00000000 E004404C 
                       CAN1TDB2
                               EQU              (CAN1_BASE_ADDR + 0x4C)
  845 00000000 E0044050 
                       CAN1TFI3
                               EQU              (CAN1_BASE_ADDR + 0x50)
  846 00000000 E0044054 
                       CAN1TID3
                               EQU              (CAN1_BASE_ADDR + 0x54)
  847 00000000 E0044058 
                       CAN1TDA3
                               EQU              (CAN1_BASE_ADDR + 0x58)
  848 00000000 E004405C 
                       CAN1TDB3
                               EQU              (CAN1_BASE_ADDR + 0x5C)
  849 00000000         
  850 00000000 E0048000 
                       CAN2_BASE_ADDR
                               EQU              0xE0048000
  851 00000000 E0048000 
                       CAN2MOD EQU              (CAN2_BASE_ADDR + 0x00)
  852 00000000 E0048004 
                       CAN2CMR EQU              (CAN2_BASE_ADDR + 0x04)
  853 00000000 E0048008 
                       CAN2GSR EQU              (CAN2_BASE_ADDR + 0x08)
  854 00000000 E004800C 
                       CAN2ICR EQU              (CAN2_BASE_ADDR + 0x0C)
  855 00000000 E0048010 
                       CAN2IER EQU              (CAN2_BASE_ADDR + 0x10)
  856 00000000 E0048014 
                       CAN2BTR EQU              (CAN2_BASE_ADDR + 0x14)
  857 00000000 E0048018 
                       CAN2EWL EQU              (CAN2_BASE_ADDR + 0x18)
  858 00000000 E004801C 
                       CAN2SR  EQU              (CAN2_BASE_ADDR + 0x1C)
  859 00000000 E0048020 
                       CAN2RFS EQU              (CAN2_BASE_ADDR + 0x20)
  860 00000000 E0048024 
                       CAN2RID EQU              (CAN2_BASE_ADDR + 0x24)
  861 00000000 E0048028 
                       CAN2RDA EQU              (CAN2_BASE_ADDR + 0x28)
  862 00000000 E004802C 
                       CAN2RDB EQU              (CAN2_BASE_ADDR + 0x2C)
  863 00000000         
  864 00000000 E0048030 
                       CAN2TFI1
                               EQU              (CAN2_BASE_ADDR + 0x30)
  865 00000000 E0048034 
                       CAN2TID1



ARM Macro Assembler    Page 35 


                               EQU              (CAN2_BASE_ADDR + 0x34)
  866 00000000 E0048038 
                       CAN2TDA1
                               EQU              (CAN2_BASE_ADDR + 0x38)
  867 00000000 E004803C 
                       CAN2TDB1
                               EQU              (CAN2_BASE_ADDR + 0x3C)
  868 00000000 E0048040 
                       CAN2TFI2
                               EQU              (CAN2_BASE_ADDR + 0x40)
  869 00000000 E0048044 
                       CAN2TID2
                               EQU              (CAN2_BASE_ADDR + 0x44)
  870 00000000 E0048048 
                       CAN2TDA2
                               EQU              (CAN2_BASE_ADDR + 0x48)
  871 00000000 E004804C 
                       CAN2TDB2
                               EQU              (CAN2_BASE_ADDR + 0x4C)
  872 00000000 E0048050 
                       CAN2TFI3
                               EQU              (CAN2_BASE_ADDR + 0x50)
  873 00000000 E0048054 
                       CAN2TID3
                               EQU              (CAN2_BASE_ADDR + 0x54)
  874 00000000 E0048058 
                       CAN2TDA3
                               EQU              (CAN2_BASE_ADDR + 0x58)
  875 00000000 E004805C 
                       CAN2TDB3
                               EQU              (CAN2_BASE_ADDR + 0x5C)
  876 00000000         
  877 00000000         
  878 00000000         ;/* MultiMedia Card Interface(MCI) Controller */
  879 00000000 E008C000 
                       MCI_BASE_ADDR
                               EQU              0xE008C000
  880 00000000 E008C000 
                       MCI_POWER
                               EQU              (MCI_BASE_ADDR + 0x00)
  881 00000000 E008C004 
                       MCI_CLOCK
                               EQU              (MCI_BASE_ADDR + 0x04)
  882 00000000 E008C008 
                       MCI_ARGUMENT
                               EQU              (MCI_BASE_ADDR + 0x08)
  883 00000000 E008C00C 
                       MCI_COMMAND
                               EQU              (MCI_BASE_ADDR + 0x0C)
  884 00000000 E008C010 
                       MCI_RESP_CMD
                               EQU              (MCI_BASE_ADDR + 0x10)
  885 00000000 E008C014 
                       MCI_RESP0
                               EQU              (MCI_BASE_ADDR + 0x14)
  886 00000000 E008C018 
                       MCI_RESP1
                               EQU              (MCI_BASE_ADDR + 0x18)
  887 00000000 E008C01C 



ARM Macro Assembler    Page 36 


                       MCI_RESP2
                               EQU              (MCI_BASE_ADDR + 0x1C)
  888 00000000 E008C020 
                       MCI_RESP3
                               EQU              (MCI_BASE_ADDR + 0x20)
  889 00000000 E008C024 
                       MCI_DATA_TMR
                               EQU              (MCI_BASE_ADDR + 0x24)
  890 00000000 E008C028 
                       MCI_DATA_LEN
                               EQU              (MCI_BASE_ADDR + 0x28)
  891 00000000 E008C02C 
                       MCI_DATA_CTRL
                               EQU              (MCI_BASE_ADDR + 0x2C)
  892 00000000 E008C030 
                       MCI_DATA_CNT
                               EQU              (MCI_BASE_ADDR + 0x30)
  893 00000000 E008C034 
                       MCI_STATUS
                               EQU              (MCI_BASE_ADDR + 0x34)
  894 00000000 E008C038 
                       MCI_CLEAR
                               EQU              (MCI_BASE_ADDR + 0x38)
  895 00000000 E008C03C 
                       MCI_MASK0
                               EQU              (MCI_BASE_ADDR + 0x3C)
  896 00000000 E008C040 
                       MCI_MASK1
                               EQU              (MCI_BASE_ADDR + 0x40)
  897 00000000 E008C048 
                       MCI_FIFO_CNT
                               EQU              (MCI_BASE_ADDR + 0x48)
  898 00000000 E008C080 
                       MCI_FIFO
                               EQU              (MCI_BASE_ADDR + 0x80)
  899 00000000         
  900 00000000         
  901 00000000         ;/* I2S Interface Controller (I2S) */
  902 00000000 E0088000 
                       I2S_BASE_ADDR
                               EQU              0xE0088000
  903 00000000 E0088000 
                       I2S_DAO EQU              (I2S_BASE_ADDR + 0x00)
  904 00000000 E0088004 
                       I2S_DAI EQU              (I2S_BASE_ADDR + 0x04)
  905 00000000 E0088008 
                       I2S_TX_FIFO
                               EQU              (I2S_BASE_ADDR + 0x08)
  906 00000000 E008800C 
                       I2S_RX_FIFO
                               EQU              (I2S_BASE_ADDR + 0x0C)
  907 00000000 E0088010 
                       I2S_STATE
                               EQU              (I2S_BASE_ADDR + 0x10)
  908 00000000 E0088014 
                       I2S_DMA1
                               EQU              (I2S_BASE_ADDR + 0x14)
  909 00000000 E0088018 
                       I2S_DMA2



ARM Macro Assembler    Page 37 


                               EQU              (I2S_BASE_ADDR + 0x18)
  910 00000000 E008801C 
                       I2S_IRQ EQU              (I2S_BASE_ADDR + 0x1C)
  911 00000000 E0088020 
                       I2S_TXRATE
                               EQU              (I2S_BASE_ADDR + 0x20)
  912 00000000 E0088024 
                       I2S_RXRATE
                               EQU              (I2S_BASE_ADDR + 0x24)
  913 00000000         
  914 00000000         
  915 00000000         ;/* General-purpose DMA Controller */
  916 00000000 FFE04000 
                       DMA_BASE_ADDR
                               EQU              0xFFE04000
  917 00000000 FFE04000 
                       GPDMA_INT_STAT
                               EQU              (DMA_BASE_ADDR + 0x000)
  918 00000000 FFE04004 
                       GPDMA_INT_TCSTAT
                               EQU              (DMA_BASE_ADDR + 0x004)
  919 00000000 FFE04008 
                       GPDMA_INT_TCCLR
                               EQU              (DMA_BASE_ADDR + 0x008)
  920 00000000 FFE0400C 
                       GPDMA_INT_ERR_STAT
                               EQU              (DMA_BASE_ADDR + 0x00C)
  921 00000000 FFE04010 
                       GPDMA_INT_ERR_CLR
                               EQU              (DMA_BASE_ADDR + 0x010)
  922 00000000 FFE04014 
                       GPDMA_RAW_INT_TCSTAT
                               EQU              (DMA_BASE_ADDR + 0x014)
  923 00000000 FFE04018 
                       GPDMA_RAW_INT_ERR_STAT
                               EQU              (DMA_BASE_ADDR + 0x018)
  924 00000000 FFE0401C 
                       GPDMA_ENABLED_CHNS
                               EQU              (DMA_BASE_ADDR + 0x01C)
  925 00000000 FFE04020 
                       GPDMA_SOFT_BREQ
                               EQU              (DMA_BASE_ADDR + 0x020)
  926 00000000 FFE04024 
                       GPDMA_SOFT_SREQ
                               EQU              (DMA_BASE_ADDR + 0x024)
  927 00000000 FFE04028 
                       GPDMA_SOFT_LBREQ
                               EQU              (DMA_BASE_ADDR + 0x028)
  928 00000000 FFE0402C 
                       GPDMA_SOFT_LSREQ
                               EQU              (DMA_BASE_ADDR + 0x02C)
  929 00000000 FFE04030 
                       GPDMA_CONFIG
                               EQU              (DMA_BASE_ADDR + 0x030)
  930 00000000 FFE04034 
                       GPDMA_SYNC
                               EQU              (DMA_BASE_ADDR + 0x034)
  931 00000000         
  932 00000000         ;/* DMA channel 0 registers */



ARM Macro Assembler    Page 38 


  933 00000000 FFE04100 
                       GPDMA_CH0_SRC
                               EQU              (DMA_BASE_ADDR + 0x100)
  934 00000000 FFE04104 
                       GPDMA_CH0_DEST
                               EQU              (DMA_BASE_ADDR + 0x104)
  935 00000000 FFE04108 
                       GPDMA_CH0_LLI
                               EQU              (DMA_BASE_ADDR + 0x108)
  936 00000000 FFE0410C 
                       GPDMA_CH0_CTRL
                               EQU              (DMA_BASE_ADDR + 0x10C)
  937 00000000 FFE04110 
                       GPDMA_CH0_CFG
                               EQU              (DMA_BASE_ADDR + 0x110)
  938 00000000         
  939 00000000         ;/* DMA channel 1 registers */
  940 00000000 FFE04120 
                       GPDMA_CH1_SRC
                               EQU              (DMA_BASE_ADDR + 0x120)
  941 00000000 FFE04124 
                       GPDMA_CH1_DEST
                               EQU              (DMA_BASE_ADDR + 0x124)
  942 00000000 FFE04128 
                       GPDMA_CH1_LLI
                               EQU              (DMA_BASE_ADDR + 0x128)
  943 00000000 FFE0412C 
                       GPDMA_CH1_CTRL
                               EQU              (DMA_BASE_ADDR + 0x12C)
  944 00000000 FFE04130 
                       GPDMA_CH1_CFG
                               EQU              (DMA_BASE_ADDR + 0x130)
  945 00000000         
  946 00000000         
  947 00000000         ;/* USB Controller */
  948 00000000 E01FC1C0 
                       USB_INT_BASE_ADDR
                               EQU              0xE01FC1C0
  949 00000000 FFE0C200 
                       USB_BASE_ADDR
                               EQU              0xFFE0C200  ;/* USB Base Addres
                                                            s */
  950 00000000         
  951 00000000 E01FC1C0 
                       USB_INT_STAT
                               EQU              (USB_INT_BASE_ADDR + 0x00)
  952 00000000         
  953 00000000         ;/* USB Device Interrupt Registers */
  954 00000000 FFE0C200 
                       DEV_INT_STAT
                               EQU              (USB_BASE_ADDR + 0x00)
  955 00000000 FFE0C204 
                       DEV_INT_EN
                               EQU              (USB_BASE_ADDR + 0x04)
  956 00000000 FFE0C208 
                       DEV_INT_CLR
                               EQU              (USB_BASE_ADDR + 0x08)
  957 00000000 FFE0C20C 
                       DEV_INT_SET



ARM Macro Assembler    Page 39 


                               EQU              (USB_BASE_ADDR + 0x0C)
  958 00000000 FFE0C22C 
                       DEV_INT_PRIO
                               EQU              (USB_BASE_ADDR + 0x2C)
  959 00000000         
  960 00000000         ;/* USB Device Endpoint Interrupt Registers */
  961 00000000 FFE0C230 
                       EP_INT_STAT
                               EQU              (USB_BASE_ADDR + 0x30)
  962 00000000 FFE0C234 
                       EP_INT_EN
                               EQU              (USB_BASE_ADDR + 0x34)
  963 00000000 FFE0C238 
                       EP_INT_CLR
                               EQU              (USB_BASE_ADDR + 0x38)
  964 00000000 FFE0C23C 
                       EP_INT_SET
                               EQU              (USB_BASE_ADDR + 0x3C)
  965 00000000 FFE0C240 
                       EP_INT_PRIO
                               EQU              (USB_BASE_ADDR + 0x40)
  966 00000000         
  967 00000000         ;/* USB Device Endpoint Realization Registers */
  968 00000000 FFE0C244 
                       REALIZE_EP
                               EQU              (USB_BASE_ADDR + 0x44)
  969 00000000 FFE0C248 
                       EP_INDEX
                               EQU              (USB_BASE_ADDR + 0x48)
  970 00000000 FFE0C24C 
                       MAXPACKET_SIZE
                               EQU              (USB_BASE_ADDR + 0x4C)
  971 00000000         
  972 00000000         ;/* USB Device Command Reagisters */
  973 00000000 FFE0C210 
                       CMD_CODE
                               EQU              (USB_BASE_ADDR + 0x10)
  974 00000000 FFE0C214 
                       CMD_DATA
                               EQU              (USB_BASE_ADDR + 0x14)
  975 00000000         
  976 00000000         ;/* USB Device Data Transfer Registers */
  977 00000000 FFE0C218 
                       RX_DATA EQU              (USB_BASE_ADDR + 0x18)
  978 00000000 FFE0C21C 
                       TX_DATA EQU              (USB_BASE_ADDR + 0x1C)
  979 00000000 FFE0C220 
                       RX_PLENGTH
                               EQU              (USB_BASE_ADDR + 0x20)
  980 00000000 FFE0C224 
                       TX_PLENGTH
                               EQU              (USB_BASE_ADDR + 0x24)
  981 00000000 FFE0C228 
                       USB_CTRL
                               EQU              (USB_BASE_ADDR + 0x28)
  982 00000000         
  983 00000000         ;/* USB Device DMA Registers */
  984 00000000 FFE0C250 
                       DMA_REQ_STAT



ARM Macro Assembler    Page 40 


                               EQU              (USB_BASE_ADDR + 0x50)
  985 00000000 FFE0C254 
                       DMA_REQ_CLR
                               EQU              (USB_BASE_ADDR + 0x54)
  986 00000000 FFE0C258 
                       DMA_REQ_SET
                               EQU              (USB_BASE_ADDR + 0x58)
  987 00000000 FFE0C280 
                       UDCA_HEAD
                               EQU              (USB_BASE_ADDR + 0x80)
  988 00000000 FFE0C284 
                       EP_DMA_STAT
                               EQU              (USB_BASE_ADDR + 0x84)
  989 00000000 FFE0C288 
                       EP_DMA_EN
                               EQU              (USB_BASE_ADDR + 0x88)
  990 00000000 FFE0C28C 
                       EP_DMA_DIS
                               EQU              (USB_BASE_ADDR + 0x8C)
  991 00000000 FFE0C290 
                       DMA_INT_STAT
                               EQU              (USB_BASE_ADDR + 0x90)
  992 00000000 FFE0C294 
                       DMA_INT_EN
                               EQU              (USB_BASE_ADDR + 0x94)
  993 00000000 FFE0C2A0 
                       EOT_INT_STAT
                               EQU              (USB_BASE_ADDR + 0xA0)
  994 00000000 FFE0C2A4 
                       EOT_INT_CLR
                               EQU              (USB_BASE_ADDR + 0xA4)
  995 00000000 FFE0C2A8 
                       EOT_INT_SET
                               EQU              (USB_BASE_ADDR + 0xA8)
  996 00000000 FFE0C2AC 
                       NDD_REQ_INT_STAT
                               EQU              (USB_BASE_ADDR + 0xAC)
  997 00000000 FFE0C2B0 
                       NDD_REQ_INT_CLR
                               EQU              (USB_BASE_ADDR + 0xB0)
  998 00000000 FFE0C2B4 
                       NDD_REQ_INT_SET
                               EQU              (USB_BASE_ADDR + 0xB4)
  999 00000000 FFE0C2B8 
                       SYS_ERR_INT_STAT
                               EQU              (USB_BASE_ADDR + 0xB8)
 1000 00000000 FFE0C2BC 
                       SYS_ERR_INT_CLR
                               EQU              (USB_BASE_ADDR + 0xBC)
 1001 00000000 FFE0C2C0 
                       SYS_ERR_INT_SET
                               EQU              (USB_BASE_ADDR + 0xC0)
 1002 00000000         
 1003 00000000         ;/* USB Host and OTG registers are for LPC24xx only */
 1004 00000000         ;/* USB Host Controller */
 1005 00000000 FFE0C000 
                       USBHC_BASE_ADDR
                               EQU              0xFFE0C000
 1006 00000000 FFE0C000 



ARM Macro Assembler    Page 41 


                       HC_REVISION
                               EQU              (USBHC_BASE_ADDR + 0x00)
 1007 00000000 FFE0C004 
                       HC_CONTROL
                               EQU              (USBHC_BASE_ADDR + 0x04)
 1008 00000000 FFE0C008 
                       HC_CMD_STAT
                               EQU              (USBHC_BASE_ADDR + 0x08)
 1009 00000000 FFE0C00C 
                       HC_INT_STAT
                               EQU              (USBHC_BASE_ADDR + 0x0C)
 1010 00000000 FFE0C010 
                       HC_INT_EN
                               EQU              (USBHC_BASE_ADDR + 0x10)
 1011 00000000 FFE0C014 
                       HC_INT_DIS
                               EQU              (USBHC_BASE_ADDR + 0x14)
 1012 00000000 FFE0C018 
                       HC_HCCA EQU              (USBHC_BASE_ADDR + 0x18)
 1013 00000000 FFE0C01C 
                       HC_PERIOD_CUR_ED
                               EQU              (USBHC_BASE_ADDR + 0x1C)
 1014 00000000 FFE0C020 
                       HC_CTRL_HEAD_ED
                               EQU              (USBHC_BASE_ADDR + 0x20)
 1015 00000000 FFE0C024 
                       HC_CTRL_CUR_ED
                               EQU              (USBHC_BASE_ADDR + 0x24)
 1016 00000000 FFE0C028 
                       HC_BULK_HEAD_ED
                               EQU              (USBHC_BASE_ADDR + 0x28)
 1017 00000000 FFE0C02C 
                       HC_BULK_CUR_ED
                               EQU              (USBHC_BASE_ADDR + 0x2C)
 1018 00000000 FFE0C030 
                       HC_DONE_HEAD
                               EQU              (USBHC_BASE_ADDR + 0x30)
 1019 00000000 FFE0C034 
                       HC_FM_INTERVAL
                               EQU              (USBHC_BASE_ADDR + 0x34)
 1020 00000000 FFE0C038 
                       HC_FM_REMAINING
                               EQU              (USBHC_BASE_ADDR + 0x38)
 1021 00000000 FFE0C03C 
                       HC_FM_NUMBER
                               EQU              (USBHC_BASE_ADDR + 0x3C)
 1022 00000000 FFE0C040 
                       HC_PERIOD_START
                               EQU              (USBHC_BASE_ADDR + 0x40)
 1023 00000000 FFE0C044 
                       HC_LS_THRHLD
                               EQU              (USBHC_BASE_ADDR + 0x44)
 1024 00000000 FFE0C048 
                       HC_RH_DESCA
                               EQU              (USBHC_BASE_ADDR + 0x48)
 1025 00000000 FFE0C04C 
                       HC_RH_DESCB
                               EQU              (USBHC_BASE_ADDR + 0x4C)
 1026 00000000 FFE0C050 



ARM Macro Assembler    Page 42 


                       HC_RH_STAT
                               EQU              (USBHC_BASE_ADDR + 0x50)
 1027 00000000 FFE0C054 
                       HC_RH_PORT_STAT1
                               EQU              (USBHC_BASE_ADDR + 0x54)
 1028 00000000 FFE0C058 
                       HC_RH_PORT_STAT2
                               EQU              (USBHC_BASE_ADDR + 0x58)
 1029 00000000         
 1030 00000000         ;/* USB OTG Controller */
 1031 00000000 FFE0C100 
                       USBOTG_BASE_ADDR
                               EQU              0xFFE0C100
 1032 00000000 FFE0C100 
                       OTG_INT_STAT
                               EQU              (USBOTG_BASE_ADDR + 0x00)
 1033 00000000 FFE0C104 
                       OTG_INT_EN
                               EQU              (USBOTG_BASE_ADDR + 0x04)
 1034 00000000 FFE0C108 
                       OTG_INT_SET
                               EQU              (USBOTG_BASE_ADDR + 0x08)
 1035 00000000 FFE0C10C 
                       OTG_INT_CLR
                               EQU              (USBOTG_BASE_ADDR + 0x0C)
 1036 00000000         ;/* On LPC23xx, the name is USBPortSel, on LPC24xx, the 
                       name is OTG_STAT_CTRL */ 
 1037 00000000 FFE0C110 
                       OTG_STAT_CTRL
                               EQU              (USBOTG_BASE_ADDR + 0x10)
 1038 00000000 FFE0C114 
                       OTG_TIMER
                               EQU              (USBOTG_BASE_ADDR + 0x14)
 1039 00000000         
 1040 00000000 FFE0C300 
                       USBOTG_I2C_BASE_ADDR
                               EQU              0xFFE0C300
 1041 00000000 FFE0C300 
                       OTG_I2C_RX
                               EQU              (USBOTG_I2C_BASE_ADDR + 0x00)
 1042 00000000 FFE0C300 
                       OTG_I2C_TX
                               EQU              (USBOTG_I2C_BASE_ADDR + 0x00)
 1043 00000000 FFE0C304 
                       OTG_I2C_STS
                               EQU              (USBOTG_I2C_BASE_ADDR + 0x04)
 1044 00000000 FFE0C308 
                       OTG_I2C_CTL
                               EQU              (USBOTG_I2C_BASE_ADDR + 0x08)
 1045 00000000 FFE0C30C 
                       OTG_I2C_CLKHI
                               EQU              (USBOTG_I2C_BASE_ADDR + 0x0C)
 1046 00000000 FFE0C310 
                       OTG_I2C_CLKLO
                               EQU              (USBOTG_I2C_BASE_ADDR + 0x10)
 1047 00000000         
 1048 00000000         ;/* On LPC23xx, the names are USBClkCtrl and USBClkSt; o
                       n LPC24xx, the names are 
 1049 00000000         ; OTG_CLK_CTRL and OTG_CLK_STAT respectively. */



ARM Macro Assembler    Page 43 


 1050 00000000 FFE0CFF0 
                       USBOTG_CLK_BASE_ADDR
                               EQU              0xFFE0CFF0
 1051 00000000 FFE0CFF4 
                       OTG_CLK_CTRL
                               EQU              (USBOTG_CLK_BASE_ADDR + 0x04)
 1052 00000000 FFE0CFF8 
                       OTG_CLK_STAT
                               EQU              (USBOTG_CLK_BASE_ADDR + 0x08)
 1053 00000000         
 1054 00000000         ;/* Note: below three register name convention is for LP
                       C23xx USB device only, match
 1055 00000000         ; with the spec. update in USB Device Section. */ 
 1056 00000000 FFE0C110 
                       USBPortSel
                               EQU              (USBOTG_BASE_ADDR + 0x10)
 1057 00000000 FFE0CFF4 
                       USBClkCtrl
                               EQU              (USBOTG_CLK_BASE_ADDR + 0x04)
 1058 00000000 FFE0CFF8 
                       USBClkSt
                               EQU              (USBOTG_CLK_BASE_ADDR + 0x08)
 1059 00000000         
 1060 00000000         ;/* Ethernet MAC (32 bit data bus) -- all registers are 
                       RW unless indicated in parentheses */
 1061 00000000 FFE00000 
                       MAC_BASE_ADDR
                               EQU              0xFFE00000  ;/* AHB Peripheral 
                                                            # 0 */
 1062 00000000 FFE00000 
                       MAC_MAC1
                               EQU              (MAC_BASE_ADDR + 0x000) ;/* MAC
                                                             config reg 1 */
 1063 00000000 FFE00004 
                       MAC_MAC2
                               EQU              (MAC_BASE_ADDR + 0x004) ;/* MAC
                                                             config reg 2 */
 1064 00000000 FFE00008 
                       MAC_IPGT
                               EQU              (MAC_BASE_ADDR + 0x008) ;/* b2b
                                                             InterPacketGap reg
                                                             */
 1065 00000000 FFE0000C 
                       MAC_IPGR
                               EQU              (MAC_BASE_ADDR + 0x00C) ;/* non
                                                             b2b InterPacketGap
                                                             reg */
 1066 00000000 FFE00010 
                       MAC_CLRT
                               EQU              (MAC_BASE_ADDR + 0x010) ;/* CoL
                                                            lision window/ReTry
                                                             reg */
 1067 00000000 FFE00014 
                       MAC_MAXF
                               EQU              (MAC_BASE_ADDR + 0x014) ;/* MAX
                                                            imum Frame reg */
 1068 00000000 FFE00018 
                       MAC_SUPP
                               EQU              (MAC_BASE_ADDR + 0x018) ;/* PHY



ARM Macro Assembler    Page 44 


                                                             SUPPort reg */
 1069 00000000 FFE0001C 
                       MAC_TEST
                               EQU              (MAC_BASE_ADDR + 0x01C) 
                                                            ;/* TEST reg */
 1070 00000000 FFE00020 
                       MAC_MCFG
                               EQU              (MAC_BASE_ADDR + 0x020) ;/* MII
                                                             Mgmt ConFiG reg */
                                                            
 1071 00000000 FFE00024 
                       MAC_MCMD
                               EQU              (MAC_BASE_ADDR + 0x024) ;/* MII
                                                             Mgmt CoMmanD reg *
                                                            /
 1072 00000000 FFE00028 
                       MAC_MADR
                               EQU              (MAC_BASE_ADDR + 0x028) ;/* MII
                                                             Mgmt ADdRess reg *
                                                            /
 1073 00000000 FFE0002C 
                       MAC_MWTD
                               EQU              (MAC_BASE_ADDR + 0x02C) ;/* MII
                                                             Mgmt WriTe Data re
                                                            g (WO) */
 1074 00000000 FFE00030 
                       MAC_MRDD
                               EQU              (MAC_BASE_ADDR + 0x030) ;/* MII
                                                             Mgmt ReaD Data reg
                                                             (RO) */
 1075 00000000 FFE00034 
                       MAC_MIND
                               EQU              (MAC_BASE_ADDR + 0x034) ;/* MII
                                                             Mgmt INDicators re
                                                            g (RO) */
 1076 00000000         
 1077 00000000 FFE00040 
                       MAC_SA0 EQU              (MAC_BASE_ADDR + 0x040) ;/* Sta
                                                            tion Address 0 reg 
                                                            */
 1078 00000000 FFE00044 
                       MAC_SA1 EQU              (MAC_BASE_ADDR + 0x044) ;/* Sta
                                                            tion Address 1 reg 
                                                            */
 1079 00000000 FFE00048 
                       MAC_SA2 EQU              (MAC_BASE_ADDR + 0x048) ;/* Sta
                                                            tion Address 2 reg 
                                                            */
 1080 00000000         
 1081 00000000 FFE00100 
                       MAC_COMMAND
                               EQU              (MAC_BASE_ADDR + 0x100) 
                                                            ;/* Command reg */
 1082 00000000 FFE00104 
                       MAC_STATUS
                               EQU              (MAC_BASE_ADDR + 0x104) ;/* Sta
                                                            tus reg (RO) */
 1083 00000000 FFE00108 
                       MAC_RXDESCRIPTOR



ARM Macro Assembler    Page 45 


                               EQU              (MAC_BASE_ADDR + 0x108) ;/* Rx 
                                                            descriptor base add
                                                            ress reg */
 1084 00000000 FFE0010C 
                       MAC_RXSTATUS
                               EQU              (MAC_BASE_ADDR + 0x10C) ;/* Rx 
                                                            status base address
                                                             reg */
 1085 00000000 FFE00110 
                       MAC_RXDESCRIPTORNUM
                               EQU              (MAC_BASE_ADDR + 0x110) ;/* Rx 
                                                            number of descripto
                                                            rs reg */
 1086 00000000 FFE00114 
                       MAC_RXPRODUCEINDEX
                               EQU              (MAC_BASE_ADDR + 0x114) ;/* Rx 
                                                            produce index reg (
                                                            RO) */
 1087 00000000 FFE00118 
                       MAC_RXCONSUMEINDEX
                               EQU              (MAC_BASE_ADDR + 0x118) ;/* Rx 
                                                            consume index reg *
                                                            /
 1088 00000000 FFE0011C 
                       MAC_TXDESCRIPTOR
                               EQU              (MAC_BASE_ADDR + 0x11C) ;/* Tx 
                                                            descriptor base add
                                                            ress reg */
 1089 00000000 FFE00120 
                       MAC_TXSTATUS
                               EQU              (MAC_BASE_ADDR + 0x120) ;/* Tx 
                                                            status base address
                                                             reg */
 1090 00000000 FFE00124 
                       MAC_TXDESCRIPTORNUM
                               EQU              (MAC_BASE_ADDR + 0x124) ;/* Tx 
                                                            number of descripto
                                                            rs reg */
 1091 00000000 FFE00128 
                       MAC_TXPRODUCEINDEX
                               EQU              (MAC_BASE_ADDR + 0x128) ;/* Tx 
                                                            produce index reg *
                                                            /
 1092 00000000 FFE0012C 
                       MAC_TXCONSUMEINDEX
                               EQU              (MAC_BASE_ADDR + 0x12C) ;/* Tx 
                                                            consume index reg (
                                                            RO) */
 1093 00000000         
 1094 00000000 FFE00158 
                       MAC_TSV0
                               EQU              (MAC_BASE_ADDR + 0x158) ;/* Tx 
                                                            status vector 0 reg
                                                             (RO) */
 1095 00000000 FFE0015C 
                       MAC_TSV1
                               EQU              (MAC_BASE_ADDR + 0x15C) ;/* Tx 
                                                            status vector 1 reg
                                                             (RO) */



ARM Macro Assembler    Page 46 


 1096 00000000 FFE00160 
                       MAC_RSV EQU              (MAC_BASE_ADDR + 0x160) ;/* Rx 
                                                            status vector reg (
                                                            RO) */
 1097 00000000         
 1098 00000000 FFE00170 
                       MAC_FLOWCONTROLCNT
                               EQU              (MAC_BASE_ADDR + 0x170) ;/* Flo
                                                            w control counter r
                                                            eg */
 1099 00000000 FFE00174 
                       MAC_FLOWCONTROLSTS
                               EQU              (MAC_BASE_ADDR + 0x174) ;/* Flo
                                                            w control status re
                                                            g */
 1100 00000000         
 1101 00000000 FFE00200 
                       MAC_RXFILTERCTRL
                               EQU              (MAC_BASE_ADDR + 0x200) ;/* Rx 
                                                            filter ctrl reg */
 1102 00000000 FFE00204 
                       MAC_RXFILTERWOLSTS
                               EQU              (MAC_BASE_ADDR + 0x204) ;/* Rx 
                                                            filter WoL status r
                                                            eg (RO) */
 1103 00000000 FFE00208 
                       MAC_RXFILTERWOLCLR
                               EQU              (MAC_BASE_ADDR + 0x208) ;/* Rx 
                                                            filter WoL clear re
                                                            g (WO) */
 1104 00000000         
 1105 00000000 FFE00210 
                       MAC_HASHFILTERL
                               EQU              (MAC_BASE_ADDR + 0x210) ;/* Has
                                                            h filter LSBs reg *
                                                            /
 1106 00000000 FFE00214 
                       MAC_HASHFILTERH
                               EQU              (MAC_BASE_ADDR + 0x214) ;/* Has
                                                            h filter MSBs reg *
                                                            /
 1107 00000000         
 1108 00000000 FFE00FE0 
                       MAC_INTSTATUS
                               EQU              (MAC_BASE_ADDR + 0xFE0) ;/* Int
                                                            errupt status reg (
                                                            RO) */
 1109 00000000 FFE00FE4 
                       MAC_INTENABLE
                               EQU              (MAC_BASE_ADDR + 0xFE4) ;/* Int
                                                            errupt enable reg  
                                                            */
 1110 00000000 FFE00FE8 
                       MAC_INTCLEAR
                               EQU              (MAC_BASE_ADDR + 0xFE8) ;/* Int
                                                            errupt clear reg (W
                                                            O) */
 1111 00000000 FFE00FEC 
                       MAC_INTSET



ARM Macro Assembler    Page 47 


                               EQU              (MAC_BASE_ADDR + 0xFEC) ;/* Int
                                                            errupt set reg (WO)
                                                             */
 1112 00000000         
 1113 00000000 FFE00FF4 
                       MAC_POWERDOWN
                               EQU              (MAC_BASE_ADDR + 0xFF4) ;/* Pow
                                                            er-down reg */
 1114 00000000 FFE00FFC 
                       MAC_MODULEID
                               EQU              (MAC_BASE_ADDR + 0xFFC) ;/* Mod
                                                            ule ID reg (RO) */
 1115 00000000         
 1116 00000000                 END
   10 00000000                 EXPORT           PosPeriod_StringDisplay
   11 00000000                 IMPORT           __main
   12 00000000                 IMPORT           StringDisplay
   13 00000000                 IMPORT           LCD_command
   14 00000000         
   15 00000000         
   16 00000000 00000001 
                       Clear   EQU              0x01
   17 00000000 00000002 
                       Home    EQU              0x02
   18 00000000 000000C0 
                       NextLine
                               EQU              0xC0
   19 00000000         
   20 00000000         PosPeriod_StringDisplay
   21 00000000 E8AD43F0        STMIA            SP!, {r4-r9, LR}
   22 00000004         
   23 00000004         
   24 00000004 E3A00001        MOV              R0, #Clear  ;clear LCD
   25 00000008 EBFFFFFE        BL               LCD_command
   26 0000000C E3A00002        MOV              R0, #Home   ;or using 02H - ret
                                                            urn home command
   27 00000010 EBFFFFFE        BL               LCD_command
   28 00000014         
   29 00000014 E3580031        CMP              R8, #'1'
   30 00000018 0A00000E        BEQ              LED1
   31 0000001C E3580032        CMP              R8, #'2'
   32 00000020 0A000013        BEQ              LED2
   33 00000024 E3580033        CMP              R8, #'3'
   34 00000028 0A000018        BEQ              LED3
   35 0000002C E3580034        CMP              R8, #'4'
   36 00000030 0A00001D        BEQ              LED4
   37 00000034 E3580035        CMP              R8, #'5'
   38 00000038 0A000022        BEQ              LED5
   39 0000003C E3580036        CMP              R8, #'6'
   40 00000040 0A000027        BEQ              LED6
   41 00000044 E3580037        CMP              R8, #'7'
   42 00000048 0A00002C        BEQ              LED7
   43 0000004C E3580038        CMP              R8, #'8'
   44 00000050 0A000031        BEQ              LED8
   45 00000054 EA000056        B                Exit
   46 00000058         
   47 00000058         LED1
   48 00000058 E59FA158        LDR              r10, =string11
   49 0000005C EBFFFFFE        BL               StringDisplay



ARM Macro Assembler    Page 48 


   50 00000060 E3A000C0        MOV              R0, #NextLine
   51 00000064 EBFFFFFE        BL               LCD_command
   52 00000068 E59FA14C        LDR              R10, =string10
   53 0000006C EBFFFFFE        BL               StringDisplay
   54 00000070 EA00004F        B                Exit
   55 00000074         LED2
   56 00000074 E59FA144        LDR              r10, =string12
   57 00000078 EBFFFFFE        BL               StringDisplay
   58 0000007C E3A000C0        MOV              R0, #NextLine
   59 00000080 EBFFFFFE        BL               LCD_command
   60 00000084 E59FA130        LDR              R10, =string10
   61 00000088 EBFFFFFE        BL               StringDisplay
   62 0000008C EA000048        B                Exit
   63 00000090         LED3
   64 00000090 E59FA12C        LDR              r10, =string13
   65 00000094 EBFFFFFE        BL               StringDisplay
   66 00000098 E3A000C0        MOV              R0, #NextLine
   67 0000009C EBFFFFFE        BL               LCD_command
   68 000000A0 E59FA114        LDR              R10, =string10
   69 000000A4 EBFFFFFE        BL               StringDisplay
   70 000000A8 EA000041        B                Exit
   71 000000AC         LED4
   72 000000AC E59FA114        LDR              r10, =string14
   73 000000B0 EBFFFFFE        BL               StringDisplay
   74 000000B4 E3A000C0        MOV              R0, #NextLine
   75 000000B8 EBFFFFFE        BL               LCD_command
   76 000000BC E59FA0F8        LDR              R10, =string10
   77 000000C0 EBFFFFFE        BL               StringDisplay
   78 000000C4 EA00003A        B                Exit
   79 000000C8         LED5
   80 000000C8 E59FA0FC        LDR              r10, =string15
   81 000000CC EBFFFFFE        BL               StringDisplay
   82 000000D0 E3A000C0        MOV              R0, #NextLine
   83 000000D4 EBFFFFFE        BL               LCD_command
   84 000000D8 E59FA0DC        LDR              R10, =string10
   85 000000DC EBFFFFFE        BL               StringDisplay
   86 000000E0 EA000033        B                Exit
   87 000000E4         LED6
   88 000000E4 E59FA0E4        LDR              r10, =string16
   89 000000E8 EBFFFFFE        BL               StringDisplay
   90 000000EC E3A000C0        MOV              R0, #NextLine
   91 000000F0 EBFFFFFE        BL               LCD_command
   92 000000F4 E59FA0C0        LDR              R10, =string10
   93 000000F8 EBFFFFFE        BL               StringDisplay
   94 000000FC EA00002C        B                Exit
   95 00000100         LED7
   96 00000100 E59FA0CC        LDR              r10, =string17
   97 00000104 EBFFFFFE        BL               StringDisplay
   98 00000108 E3A000C0        MOV              R0, #NextLine
   99 0000010C EBFFFFFE        BL               LCD_command
  100 00000110 E59FA0A4        LDR              R10, =string10
  101 00000114 EBFFFFFE        BL               StringDisplay
  102 00000118 EA000025        B                Exit
  103 0000011C         LED8
  104 0000011C E59FA0B4        LDR              r10, =string18
  105 00000120 EBFFFFFE        BL               StringDisplay
  106 00000124 E3A000C0        MOV              R0, #NextLine
  107 00000128 EBFFFFFE        BL               LCD_command
  108 0000012C E59FA088        LDR              R10, =string10



ARM Macro Assembler    Page 49 


  109 00000130 EBFFFFFE        BL               StringDisplay
  110 00000134 EA00001E        B                Exit
  111 00000138         
  112 00000138 28 23 29 
              20 64 6F 
              6E 65 3A 
              20 00    string10
                               DCB              "(#) done: ",0
  113 00000143 45 6E 74 
              65 72 20 
              4C 45 44 
              31 20 54 
              31 00    string11
                               DCB              "Enter LED1 T1",0
  114 00000151 45 6E 74 
              65 72 20 
              4C 45 44 
              32 20 54 
              31 00    string12
                               DCB              "Enter LED2 T1",0
  115 0000015F 45 6E 74 
              65 72 20 
              4C 45 44 
              33 20 54 
              31 00    string13
                               DCB              "Enter LED3 T1",0
  116 0000016D 45 6E 74 
              65 72 20 
              4C 45 44 
              34 20 54 
              31 00    string14
                               DCB              "Enter LED4 T1",0
  117 0000017B 45 6E 74 
              65 72 20 
              4C 45 44 
              35 20 54 
              31 00    string15
                               DCB              "Enter LED5 T1",0
  118 00000189 45 6E 74 
              65 72 20 
              4C 45 44 
              36 20 54 
              31 00    string16
                               DCB              "Enter LED6 T1",0
  119 00000197 45 6E 74 
              65 72 20 
              4C 45 44 
              37 20 54 
              31 00    string17
                               DCB              "Enter LED7 T1",0
  120 000001A5 45 6E 74 
              65 72 20 
              4C 45 44 
              38 20 54 
              31 00    string18
                               DCB              "Enter LED8 T1",0
  121 000001B3 00              ALIGN
  122 000001B4         
  123 000001B4         Exit



ARM Macro Assembler    Page 50 


  124 000001B4 E93D83F0        LDMDB            SP!, {PC, r4-r9}
  125 000001B8                 END
              00000000 
              00000000 
              00000000 
              00000000 
              00000000 
              00000000 
              00000000 
              00000000 
              00000000 
              00000000 
              00000000 
              00000000 
              00000000 
              00000000 
              00000000 
              00000000 
Command Line: --debug --xref --diag_suppress=9931 --apcs=interwork --depend=.\p
osperiod_stringdisplay.d -o.\posperiod_stringdisplay.o -IC:\Keil_v5\ARM\RV31\IN
C -IC:\Keil_v5\ARM\CMSIS\Include -IC:\Keil_v5\ARM\Inc\Philips --predefine="__EV
AL SETA 1" --predefine="__UVISION_VERSION SETA 522" --list=.\posperiod_stringdi
splay.lst PosPeriod_StringDisplay.s



ARM Macro Assembler    Page 1 Alphabetic symbol ordering
Relocatable symbols

Exit 000001B4

Symbol: Exit
   Definitions
      At line 123 in file PosPeriod_StringDisplay.s
   Uses
      At line 45 in file PosPeriod_StringDisplay.s
      At line 54 in file PosPeriod_StringDisplay.s
      At line 62 in file PosPeriod_StringDisplay.s
      At line 70 in file PosPeriod_StringDisplay.s
      At line 78 in file PosPeriod_StringDisplay.s
      At line 86 in file PosPeriod_StringDisplay.s
      At line 94 in file PosPeriod_StringDisplay.s
      At line 102 in file PosPeriod_StringDisplay.s
      At line 110 in file PosPeriod_StringDisplay.s

LED1 00000058

Symbol: LED1
   Definitions
      At line 47 in file PosPeriod_StringDisplay.s
   Uses
      At line 30 in file PosPeriod_StringDisplay.s
Comment: LED1 used once
LED2 00000074

Symbol: LED2
   Definitions
      At line 55 in file PosPeriod_StringDisplay.s
   Uses
      At line 32 in file PosPeriod_StringDisplay.s
Comment: LED2 used once
LED3 00000090

Symbol: LED3
   Definitions
      At line 63 in file PosPeriod_StringDisplay.s
   Uses
      At line 34 in file PosPeriod_StringDisplay.s
Comment: LED3 used once
LED4 000000AC

Symbol: LED4
   Definitions
      At line 71 in file PosPeriod_StringDisplay.s
   Uses
      At line 36 in file PosPeriod_StringDisplay.s
Comment: LED4 used once
LED5 000000C8

Symbol: LED5
   Definitions
      At line 79 in file PosPeriod_StringDisplay.s
   Uses
      At line 38 in file PosPeriod_StringDisplay.s
Comment: LED5 used once
LED6 000000E4

Symbol: LED6



ARM Macro Assembler    Page 2 Alphabetic symbol ordering
Relocatable symbols

   Definitions
      At line 87 in file PosPeriod_StringDisplay.s
   Uses
      At line 40 in file PosPeriod_StringDisplay.s
Comment: LED6 used once
LED7 00000100

Symbol: LED7
   Definitions
      At line 95 in file PosPeriod_StringDisplay.s
   Uses
      At line 42 in file PosPeriod_StringDisplay.s
Comment: LED7 used once
LED8 0000011C

Symbol: LED8
   Definitions
      At line 103 in file PosPeriod_StringDisplay.s
   Uses
      At line 44 in file PosPeriod_StringDisplay.s
Comment: LED8 used once
PosPeriod_StringDisplay 00000000

Symbol: PosPeriod_StringDisplay
   Definitions
      At line 20 in file PosPeriod_StringDisplay.s
   Uses
      At line 10 in file PosPeriod_StringDisplay.s
Comment: PosPeriod_StringDisplay used once
Program 00000000

Symbol: Program
   Definitions
      At line 5 in file PosPeriod_StringDisplay.s
   Uses
      None
Comment: Program unused
string10 00000138

Symbol: string10
   Definitions
      At line 112 in file PosPeriod_StringDisplay.s
   Uses
      At line 52 in file PosPeriod_StringDisplay.s
      At line 60 in file PosPeriod_StringDisplay.s
      At line 68 in file PosPeriod_StringDisplay.s
      At line 76 in file PosPeriod_StringDisplay.s
      At line 84 in file PosPeriod_StringDisplay.s
      At line 92 in file PosPeriod_StringDisplay.s
      At line 100 in file PosPeriod_StringDisplay.s
      At line 108 in file PosPeriod_StringDisplay.s

string11 00000143

Symbol: string11
   Definitions
      At line 113 in file PosPeriod_StringDisplay.s
   Uses
      At line 48 in file PosPeriod_StringDisplay.s



ARM Macro Assembler    Page 3 Alphabetic symbol ordering
Relocatable symbols

Comment: string11 used once
string12 00000151

Symbol: string12
   Definitions
      At line 114 in file PosPeriod_StringDisplay.s
   Uses
      At line 56 in file PosPeriod_StringDisplay.s
Comment: string12 used once
string13 0000015F

Symbol: string13
   Definitions
      At line 115 in file PosPeriod_StringDisplay.s
   Uses
      At line 64 in file PosPeriod_StringDisplay.s
Comment: string13 used once
string14 0000016D

Symbol: string14
   Definitions
      At line 116 in file PosPeriod_StringDisplay.s
   Uses
      At line 72 in file PosPeriod_StringDisplay.s
Comment: string14 used once
string15 0000017B

Symbol: string15
   Definitions
      At line 117 in file PosPeriod_StringDisplay.s
   Uses
      At line 80 in file PosPeriod_StringDisplay.s
Comment: string15 used once
string16 00000189

Symbol: string16
   Definitions
      At line 118 in file PosPeriod_StringDisplay.s
   Uses
      At line 88 in file PosPeriod_StringDisplay.s
Comment: string16 used once
string17 00000197

Symbol: string17
   Definitions
      At line 119 in file PosPeriod_StringDisplay.s
   Uses
      At line 96 in file PosPeriod_StringDisplay.s
Comment: string17 used once
string18 000001A5

Symbol: string18
   Definitions
      At line 120 in file PosPeriod_StringDisplay.s
   Uses
      At line 104 in file PosPeriod_StringDisplay.s
Comment: string18 used once
20 symbols



ARM Macro Assembler    Page 1 Alphabetic symbol ordering
Absolute symbols

AD0CR E0034000

Symbol: AD0CR
   Definitions
      At line 780 in file LPC23xx.inc
   Uses
      None
Comment: AD0CR unused
AD0DR0 E0034010

Symbol: AD0DR0
   Definitions
      At line 783 in file LPC23xx.inc
   Uses
      None
Comment: AD0DR0 unused
AD0DR1 E0034014

Symbol: AD0DR1
   Definitions
      At line 784 in file LPC23xx.inc
   Uses
      None
Comment: AD0DR1 unused
AD0DR2 E0034018

Symbol: AD0DR2
   Definitions
      At line 785 in file LPC23xx.inc
   Uses
      None
Comment: AD0DR2 unused
AD0DR3 E003401C

Symbol: AD0DR3
   Definitions
      At line 786 in file LPC23xx.inc
   Uses
      None
Comment: AD0DR3 unused
AD0DR4 E0034020

Symbol: AD0DR4
   Definitions
      At line 787 in file LPC23xx.inc
   Uses
      None
Comment: AD0DR4 unused
AD0DR5 E0034024

Symbol: AD0DR5
   Definitions
      At line 788 in file LPC23xx.inc
   Uses
      None
Comment: AD0DR5 unused
AD0DR6 E0034028

Symbol: AD0DR6



ARM Macro Assembler    Page 2 Alphabetic symbol ordering
Absolute symbols

   Definitions
      At line 789 in file LPC23xx.inc
   Uses
      None
Comment: AD0DR6 unused
AD0DR7 E003402C

Symbol: AD0DR7
   Definitions
      At line 790 in file LPC23xx.inc
   Uses
      None
Comment: AD0DR7 unused
AD0GDR E0034004

Symbol: AD0GDR
   Definitions
      At line 781 in file LPC23xx.inc
   Uses
      None
Comment: AD0GDR unused
AD0INTEN E003400C

Symbol: AD0INTEN
   Definitions
      At line 782 in file LPC23xx.inc
   Uses
      None
Comment: AD0INTEN unused
AD0STAT E0034030

Symbol: AD0STAT
   Definitions
      At line 791 in file LPC23xx.inc
   Uses
      None
Comment: AD0STAT unused
AD0_BASE_ADDR E0034000

Symbol: AD0_BASE_ADDR
   Definitions
      At line 779 in file LPC23xx.inc
   Uses
      At line 780 in file LPC23xx.inc
      At line 781 in file LPC23xx.inc
      At line 782 in file LPC23xx.inc
      At line 783 in file LPC23xx.inc
      At line 784 in file LPC23xx.inc
      At line 785 in file LPC23xx.inc
      At line 786 in file LPC23xx.inc
      At line 787 in file LPC23xx.inc
      At line 788 in file LPC23xx.inc
      At line 789 in file LPC23xx.inc
      At line 790 in file LPC23xx.inc
      At line 791 in file LPC23xx.inc

AHBCFG1 E01FC188

Symbol: AHBCFG1



ARM Macro Assembler    Page 3 Alphabetic symbol ordering
Absolute symbols

   Definitions
      At line 397 in file LPC23xx.inc
   Uses
      None
Comment: AHBCFG1 unused
AHBCFG2 E01FC18C

Symbol: AHBCFG2
   Definitions
      At line 398 in file LPC23xx.inc
   Uses
      None
Comment: AHBCFG2 unused
CAN1BTR E0044014

Symbol: CAN1BTR
   Definitions
      At line 829 in file LPC23xx.inc
   Uses
      None
Comment: CAN1BTR unused
CAN1CMR E0044004

Symbol: CAN1CMR
   Definitions
      At line 825 in file LPC23xx.inc
   Uses
      None
Comment: CAN1CMR unused
CAN1EWL E0044018

Symbol: CAN1EWL
   Definitions
      At line 830 in file LPC23xx.inc
   Uses
      None
Comment: CAN1EWL unused
CAN1GSR E0044008

Symbol: CAN1GSR
   Definitions
      At line 826 in file LPC23xx.inc
   Uses
      None
Comment: CAN1GSR unused
CAN1ICR E004400C

Symbol: CAN1ICR
   Definitions
      At line 827 in file LPC23xx.inc
   Uses
      None
Comment: CAN1ICR unused
CAN1IER E0044010

Symbol: CAN1IER
   Definitions
      At line 828 in file LPC23xx.inc
   Uses



ARM Macro Assembler    Page 4 Alphabetic symbol ordering
Absolute symbols

      None
Comment: CAN1IER unused
CAN1MOD E0044000

Symbol: CAN1MOD
   Definitions
      At line 824 in file LPC23xx.inc
   Uses
      None
Comment: CAN1MOD unused
CAN1RDA E0044028

Symbol: CAN1RDA
   Definitions
      At line 834 in file LPC23xx.inc
   Uses
      None
Comment: CAN1RDA unused
CAN1RDB E004402C

Symbol: CAN1RDB
   Definitions
      At line 835 in file LPC23xx.inc
   Uses
      None
Comment: CAN1RDB unused
CAN1RFS E0044020

Symbol: CAN1RFS
   Definitions
      At line 832 in file LPC23xx.inc
   Uses
      None
Comment: CAN1RFS unused
CAN1RID E0044024

Symbol: CAN1RID
   Definitions
      At line 833 in file LPC23xx.inc
   Uses
      None
Comment: CAN1RID unused
CAN1SR E004401C

Symbol: CAN1SR
   Definitions
      At line 831 in file LPC23xx.inc
   Uses
      None
Comment: CAN1SR unused
CAN1TDA1 E0044038

Symbol: CAN1TDA1
   Definitions
      At line 839 in file LPC23xx.inc
   Uses
      None
Comment: CAN1TDA1 unused
CAN1TDA2 E0044048



ARM Macro Assembler    Page 5 Alphabetic symbol ordering
Absolute symbols


Symbol: CAN1TDA2
   Definitions
      At line 843 in file LPC23xx.inc
   Uses
      None
Comment: CAN1TDA2 unused
CAN1TDA3 E0044058

Symbol: CAN1TDA3
   Definitions
      At line 847 in file LPC23xx.inc
   Uses
      None
Comment: CAN1TDA3 unused
CAN1TDB1 E004403C

Symbol: CAN1TDB1
   Definitions
      At line 840 in file LPC23xx.inc
   Uses
      None
Comment: CAN1TDB1 unused
CAN1TDB2 E004404C

Symbol: CAN1TDB2
   Definitions
      At line 844 in file LPC23xx.inc
   Uses
      None
Comment: CAN1TDB2 unused
CAN1TDB3 E004405C

Symbol: CAN1TDB3
   Definitions
      At line 848 in file LPC23xx.inc
   Uses
      None
Comment: CAN1TDB3 unused
CAN1TFI1 E0044030

Symbol: CAN1TFI1
   Definitions
      At line 837 in file LPC23xx.inc
   Uses
      None
Comment: CAN1TFI1 unused
CAN1TFI2 E0044040

Symbol: CAN1TFI2
   Definitions
      At line 841 in file LPC23xx.inc
   Uses
      None
Comment: CAN1TFI2 unused
CAN1TFI3 E0044050

Symbol: CAN1TFI3
   Definitions



ARM Macro Assembler    Page 6 Alphabetic symbol ordering
Absolute symbols

      At line 845 in file LPC23xx.inc
   Uses
      None
Comment: CAN1TFI3 unused
CAN1TID1 E0044034

Symbol: CAN1TID1
   Definitions
      At line 838 in file LPC23xx.inc
   Uses
      None
Comment: CAN1TID1 unused
CAN1TID2 E0044044

Symbol: CAN1TID2
   Definitions
      At line 842 in file LPC23xx.inc
   Uses
      None
Comment: CAN1TID2 unused
CAN1TID3 E0044054

Symbol: CAN1TID3
   Definitions
      At line 846 in file LPC23xx.inc
   Uses
      None
Comment: CAN1TID3 unused
CAN1_BASE_ADDR E0044000

Symbol: CAN1_BASE_ADDR
   Definitions
      At line 823 in file LPC23xx.inc
   Uses
      At line 824 in file LPC23xx.inc
      At line 825 in file LPC23xx.inc
      At line 826 in file LPC23xx.inc
      At line 827 in file LPC23xx.inc
      At line 828 in file LPC23xx.inc
      At line 829 in file LPC23xx.inc
      At line 830 in file LPC23xx.inc
      At line 831 in file LPC23xx.inc
      At line 832 in file LPC23xx.inc
      At line 833 in file LPC23xx.inc
      At line 834 in file LPC23xx.inc
      At line 835 in file LPC23xx.inc
      At line 837 in file LPC23xx.inc
      At line 838 in file LPC23xx.inc
      At line 839 in file LPC23xx.inc
      At line 840 in file LPC23xx.inc
      At line 841 in file LPC23xx.inc
      At line 842 in file LPC23xx.inc
      At line 843 in file LPC23xx.inc
      At line 844 in file LPC23xx.inc
      At line 845 in file LPC23xx.inc
      At line 846 in file LPC23xx.inc
      At line 847 in file LPC23xx.inc
      At line 848 in file LPC23xx.inc




ARM Macro Assembler    Page 7 Alphabetic symbol ordering
Absolute symbols

CAN2BTR E0048014

Symbol: CAN2BTR
   Definitions
      At line 856 in file LPC23xx.inc
   Uses
      None
Comment: CAN2BTR unused
CAN2CMR E0048004

Symbol: CAN2CMR
   Definitions
      At line 852 in file LPC23xx.inc
   Uses
      None
Comment: CAN2CMR unused
CAN2EWL E0048018

Symbol: CAN2EWL
   Definitions
      At line 857 in file LPC23xx.inc
   Uses
      None
Comment: CAN2EWL unused
CAN2GSR E0048008

Symbol: CAN2GSR
   Definitions
      At line 853 in file LPC23xx.inc
   Uses
      None
Comment: CAN2GSR unused
CAN2ICR E004800C

Symbol: CAN2ICR
   Definitions
      At line 854 in file LPC23xx.inc
   Uses
      None
Comment: CAN2ICR unused
CAN2IER E0048010

Symbol: CAN2IER
   Definitions
      At line 855 in file LPC23xx.inc
   Uses
      None
Comment: CAN2IER unused
CAN2MOD E0048000

Symbol: CAN2MOD
   Definitions
      At line 851 in file LPC23xx.inc
   Uses
      None
Comment: CAN2MOD unused
CAN2RDA E0048028

Symbol: CAN2RDA



ARM Macro Assembler    Page 8 Alphabetic symbol ordering
Absolute symbols

   Definitions
      At line 861 in file LPC23xx.inc
   Uses
      None
Comment: CAN2RDA unused
CAN2RDB E004802C

Symbol: CAN2RDB
   Definitions
      At line 862 in file LPC23xx.inc
   Uses
      None
Comment: CAN2RDB unused
CAN2RFS E0048020

Symbol: CAN2RFS
   Definitions
      At line 859 in file LPC23xx.inc
   Uses
      None
Comment: CAN2RFS unused
CAN2RID E0048024

Symbol: CAN2RID
   Definitions
      At line 860 in file LPC23xx.inc
   Uses
      None
Comment: CAN2RID unused
CAN2SR E004801C

Symbol: CAN2SR
   Definitions
      At line 858 in file LPC23xx.inc
   Uses
      None
Comment: CAN2SR unused
CAN2TDA1 E0048038

Symbol: CAN2TDA1
   Definitions
      At line 866 in file LPC23xx.inc
   Uses
      None
Comment: CAN2TDA1 unused
CAN2TDA2 E0048048

Symbol: CAN2TDA2
   Definitions
      At line 870 in file LPC23xx.inc
   Uses
      None
Comment: CAN2TDA2 unused
CAN2TDA3 E0048058

Symbol: CAN2TDA3
   Definitions
      At line 874 in file LPC23xx.inc
   Uses



ARM Macro Assembler    Page 9 Alphabetic symbol ordering
Absolute symbols

      None
Comment: CAN2TDA3 unused
CAN2TDB1 E004803C

Symbol: CAN2TDB1
   Definitions
      At line 867 in file LPC23xx.inc
   Uses
      None
Comment: CAN2TDB1 unused
CAN2TDB2 E004804C

Symbol: CAN2TDB2
   Definitions
      At line 871 in file LPC23xx.inc
   Uses
      None
Comment: CAN2TDB2 unused
CAN2TDB3 E004805C

Symbol: CAN2TDB3
   Definitions
      At line 875 in file LPC23xx.inc
   Uses
      None
Comment: CAN2TDB3 unused
CAN2TFI1 E0048030

Symbol: CAN2TFI1
   Definitions
      At line 864 in file LPC23xx.inc
   Uses
      None
Comment: CAN2TFI1 unused
CAN2TFI2 E0048040

Symbol: CAN2TFI2
   Definitions
      At line 868 in file LPC23xx.inc
   Uses
      None
Comment: CAN2TFI2 unused
CAN2TFI3 E0048050

Symbol: CAN2TFI3
   Definitions
      At line 872 in file LPC23xx.inc
   Uses
      None
Comment: CAN2TFI3 unused
CAN2TID1 E0048034

Symbol: CAN2TID1
   Definitions
      At line 865 in file LPC23xx.inc
   Uses
      None
Comment: CAN2TID1 unused
CAN2TID2 E0048044



ARM Macro Assembler    Page 10 Alphabetic symbol ordering
Absolute symbols


Symbol: CAN2TID2
   Definitions
      At line 869 in file LPC23xx.inc
   Uses
      None
Comment: CAN2TID2 unused
CAN2TID3 E0048054

Symbol: CAN2TID3
   Definitions
      At line 873 in file LPC23xx.inc
   Uses
      None
Comment: CAN2TID3 unused
CAN2_BASE_ADDR E0048000

Symbol: CAN2_BASE_ADDR
   Definitions
      At line 850 in file LPC23xx.inc
   Uses
      At line 851 in file LPC23xx.inc
      At line 852 in file LPC23xx.inc
      At line 853 in file LPC23xx.inc
      At line 854 in file LPC23xx.inc
      At line 855 in file LPC23xx.inc
      At line 856 in file LPC23xx.inc
      At line 857 in file LPC23xx.inc
      At line 858 in file LPC23xx.inc
      At line 859 in file LPC23xx.inc
      At line 860 in file LPC23xx.inc
      At line 861 in file LPC23xx.inc
      At line 862 in file LPC23xx.inc
      At line 864 in file LPC23xx.inc
      At line 865 in file LPC23xx.inc
      At line 866 in file LPC23xx.inc
      At line 867 in file LPC23xx.inc
      At line 868 in file LPC23xx.inc
      At line 869 in file LPC23xx.inc
      At line 870 in file LPC23xx.inc
      At line 871 in file LPC23xx.inc
      At line 872 in file LPC23xx.inc
      At line 873 in file LPC23xx.inc
      At line 874 in file LPC23xx.inc
      At line 875 in file LPC23xx.inc

CAN_ACCEPT_BASE_ADDR E003C000

Symbol: CAN_ACCEPT_BASE_ADDR
   Definitions
      At line 808 in file LPC23xx.inc
   Uses
      At line 809 in file LPC23xx.inc
      At line 810 in file LPC23xx.inc
      At line 811 in file LPC23xx.inc
      At line 812 in file LPC23xx.inc
      At line 813 in file LPC23xx.inc
      At line 814 in file LPC23xx.inc
      At line 815 in file LPC23xx.inc



ARM Macro Assembler    Page 11 Alphabetic symbol ordering
Absolute symbols

      At line 816 in file LPC23xx.inc

CAN_AFMR E003C000

Symbol: CAN_AFMR
   Definitions
      At line 809 in file LPC23xx.inc
   Uses
      None
Comment: CAN_AFMR unused
CAN_CENTRAL_BASE_ADDR E0040000

Symbol: CAN_CENTRAL_BASE_ADDR
   Definitions
      At line 818 in file LPC23xx.inc
   Uses
      At line 819 in file LPC23xx.inc
      At line 820 in file LPC23xx.inc
      At line 821 in file LPC23xx.inc

CAN_EFF_GRP_SA E003C010

Symbol: CAN_EFF_GRP_SA
   Definitions
      At line 813 in file LPC23xx.inc
   Uses
      None
Comment: CAN_EFF_GRP_SA unused
CAN_EFF_SA E003C00C

Symbol: CAN_EFF_SA
   Definitions
      At line 812 in file LPC23xx.inc
   Uses
      None
Comment: CAN_EFF_SA unused
CAN_EOT E003C014

Symbol: CAN_EOT
   Definitions
      At line 814 in file LPC23xx.inc
   Uses
      None
Comment: CAN_EOT unused
CAN_LUT_ERR E003C01C

Symbol: CAN_LUT_ERR
   Definitions
      At line 816 in file LPC23xx.inc
   Uses
      None
Comment: CAN_LUT_ERR unused
CAN_LUT_ERR_ADR E003C018

Symbol: CAN_LUT_ERR_ADR
   Definitions
      At line 815 in file LPC23xx.inc
   Uses
      None



ARM Macro Assembler    Page 12 Alphabetic symbol ordering
Absolute symbols

Comment: CAN_LUT_ERR_ADR unused
CAN_MSR E0040008

Symbol: CAN_MSR
   Definitions
      At line 821 in file LPC23xx.inc
   Uses
      None
Comment: CAN_MSR unused
CAN_RX_SR E0040004

Symbol: CAN_RX_SR
   Definitions
      At line 820 in file LPC23xx.inc
   Uses
      None
Comment: CAN_RX_SR unused
CAN_SFF_GRP_SA E003C008

Symbol: CAN_SFF_GRP_SA
   Definitions
      At line 811 in file LPC23xx.inc
   Uses
      None
Comment: CAN_SFF_GRP_SA unused
CAN_SFF_SA E003C004

Symbol: CAN_SFF_SA
   Definitions
      At line 810 in file LPC23xx.inc
   Uses
      None
Comment: CAN_SFF_SA unused
CAN_TX_SR E0040000

Symbol: CAN_TX_SR
   Definitions
      At line 819 in file LPC23xx.inc
   Uses
      None
Comment: CAN_TX_SR unused
CCLKCFG E01FC104

Symbol: CCLKCFG
   Definitions
      At line 378 in file LPC23xx.inc
   Uses
      None
Comment: CCLKCFG unused
CLKSRCSEL E01FC10C

Symbol: CLKSRCSEL
   Definitions
      At line 380 in file LPC23xx.inc
   Uses
      None
Comment: CLKSRCSEL unused
CMD_CODE FFE0C210




ARM Macro Assembler    Page 13 Alphabetic symbol ordering
Absolute symbols

Symbol: CMD_CODE
   Definitions
      At line 973 in file LPC23xx.inc
   Uses
      None
Comment: CMD_CODE unused
CMD_DATA FFE0C214

Symbol: CMD_DATA
   Definitions
      At line 974 in file LPC23xx.inc
   Uses
      None
Comment: CMD_DATA unused
CSPR E01FC184

Symbol: CSPR
   Definitions
      At line 394 in file LPC23xx.inc
   Uses
      None
Comment: CSPR unused
Clear 00000001

Symbol: Clear
   Definitions
      At line 16 in file PosPeriod_StringDisplay.s
   Uses
      At line 24 in file PosPeriod_StringDisplay.s
Comment: Clear used once
DACR E006C000

Symbol: DACR
   Definitions
      At line 796 in file LPC23xx.inc
   Uses
      None
Comment: DACR unused
DAC_BASE_ADDR E006C000

Symbol: DAC_BASE_ADDR
   Definitions
      At line 795 in file LPC23xx.inc
   Uses
      At line 796 in file LPC23xx.inc
Comment: DAC_BASE_ADDR used once
DEV_INT_CLR FFE0C208

Symbol: DEV_INT_CLR
   Definitions
      At line 956 in file LPC23xx.inc
   Uses
      None
Comment: DEV_INT_CLR unused
DEV_INT_EN FFE0C204

Symbol: DEV_INT_EN
   Definitions
      At line 955 in file LPC23xx.inc



ARM Macro Assembler    Page 14 Alphabetic symbol ordering
Absolute symbols

   Uses
      None
Comment: DEV_INT_EN unused
DEV_INT_PRIO FFE0C22C

Symbol: DEV_INT_PRIO
   Definitions
      At line 958 in file LPC23xx.inc
   Uses
      None
Comment: DEV_INT_PRIO unused
DEV_INT_SET FFE0C20C

Symbol: DEV_INT_SET
   Definitions
      At line 957 in file LPC23xx.inc
   Uses
      None
Comment: DEV_INT_SET unused
DEV_INT_STAT FFE0C200

Symbol: DEV_INT_STAT
   Definitions
      At line 954 in file LPC23xx.inc
   Uses
      None
Comment: DEV_INT_STAT unused
DMA_BASE_ADDR FFE04000

Symbol: DMA_BASE_ADDR
   Definitions
      At line 916 in file LPC23xx.inc
   Uses
      At line 917 in file LPC23xx.inc
      At line 918 in file LPC23xx.inc
      At line 919 in file LPC23xx.inc
      At line 920 in file LPC23xx.inc
      At line 921 in file LPC23xx.inc
      At line 922 in file LPC23xx.inc
      At line 923 in file LPC23xx.inc
      At line 924 in file LPC23xx.inc
      At line 925 in file LPC23xx.inc
      At line 926 in file LPC23xx.inc
      At line 927 in file LPC23xx.inc
      At line 928 in file LPC23xx.inc
      At line 929 in file LPC23xx.inc
      At line 930 in file LPC23xx.inc
      At line 933 in file LPC23xx.inc
      At line 934 in file LPC23xx.inc
      At line 935 in file LPC23xx.inc
      At line 936 in file LPC23xx.inc
      At line 937 in file LPC23xx.inc
      At line 940 in file LPC23xx.inc
      At line 941 in file LPC23xx.inc
      At line 942 in file LPC23xx.inc
      At line 943 in file LPC23xx.inc
      At line 944 in file LPC23xx.inc

DMA_INT_EN FFE0C294



ARM Macro Assembler    Page 15 Alphabetic symbol ordering
Absolute symbols


Symbol: DMA_INT_EN
   Definitions
      At line 992 in file LPC23xx.inc
   Uses
      None
Comment: DMA_INT_EN unused
DMA_INT_STAT FFE0C290

Symbol: DMA_INT_STAT
   Definitions
      At line 991 in file LPC23xx.inc
   Uses
      None
Comment: DMA_INT_STAT unused
DMA_REQ_CLR FFE0C254

Symbol: DMA_REQ_CLR
   Definitions
      At line 985 in file LPC23xx.inc
   Uses
      None
Comment: DMA_REQ_CLR unused
DMA_REQ_SET FFE0C258

Symbol: DMA_REQ_SET
   Definitions
      At line 986 in file LPC23xx.inc
   Uses
      None
Comment: DMA_REQ_SET unused
DMA_REQ_STAT FFE0C250

Symbol: DMA_REQ_STAT
   Definitions
      At line 984 in file LPC23xx.inc
   Uses
      None
Comment: DMA_REQ_STAT unused
DYNAMIC_MEM0_BASE A0000000

Symbol: DYNAMIC_MEM0_BASE
   Definitions
      At line 410 in file LPC23xx.inc
   Uses
      None
Comment: DYNAMIC_MEM0_BASE unused
DYNAMIC_MEM1_BASE B0000000

Symbol: DYNAMIC_MEM1_BASE
   Definitions
      At line 411 in file LPC23xx.inc
   Uses
      None
Comment: DYNAMIC_MEM1_BASE unused
DYNAMIC_MEM2_BASE C0000000

Symbol: DYNAMIC_MEM2_BASE
   Definitions



ARM Macro Assembler    Page 16 Alphabetic symbol ordering
Absolute symbols

      At line 412 in file LPC23xx.inc
   Uses
      None
Comment: DYNAMIC_MEM2_BASE unused
DYNAMIC_MEM3_BASE D0000000

Symbol: DYNAMIC_MEM3_BASE
   Definitions
      At line 413 in file LPC23xx.inc
   Uses
      None
Comment: DYNAMIC_MEM3_BASE unused
EMC_BASE_ADDR FFE08000

Symbol: EMC_BASE_ADDR
   Definitions
      At line 416 in file LPC23xx.inc
   Uses
      At line 417 in file LPC23xx.inc
      At line 418 in file LPC23xx.inc
      At line 419 in file LPC23xx.inc
      At line 422 in file LPC23xx.inc
      At line 423 in file LPC23xx.inc
      At line 424 in file LPC23xx.inc
      At line 425 in file LPC23xx.inc
      At line 426 in file LPC23xx.inc
      At line 427 in file LPC23xx.inc
      At line 428 in file LPC23xx.inc
      At line 429 in file LPC23xx.inc
      At line 430 in file LPC23xx.inc
      At line 431 in file LPC23xx.inc
      At line 432 in file LPC23xx.inc
      At line 433 in file LPC23xx.inc
      At line 434 in file LPC23xx.inc
      At line 435 in file LPC23xx.inc
      At line 437 in file LPC23xx.inc
      At line 438 in file LPC23xx.inc
      At line 439 in file LPC23xx.inc
      At line 440 in file LPC23xx.inc
      At line 441 in file LPC23xx.inc
      At line 442 in file LPC23xx.inc
      At line 443 in file LPC23xx.inc
      At line 444 in file LPC23xx.inc
      At line 447 in file LPC23xx.inc
      At line 448 in file LPC23xx.inc
      At line 449 in file LPC23xx.inc
      At line 450 in file LPC23xx.inc
      At line 451 in file LPC23xx.inc
      At line 452 in file LPC23xx.inc
      At line 453 in file LPC23xx.inc
      At line 455 in file LPC23xx.inc
      At line 456 in file LPC23xx.inc
      At line 457 in file LPC23xx.inc
      At line 458 in file LPC23xx.inc
      At line 459 in file LPC23xx.inc
      At line 460 in file LPC23xx.inc
      At line 461 in file LPC23xx.inc
      At line 463 in file LPC23xx.inc
      At line 464 in file LPC23xx.inc



ARM Macro Assembler    Page 17 Alphabetic symbol ordering
Absolute symbols

      At line 465 in file LPC23xx.inc
      At line 466 in file LPC23xx.inc
      At line 467 in file LPC23xx.inc
      At line 468 in file LPC23xx.inc
      At line 469 in file LPC23xx.inc
      At line 471 in file LPC23xx.inc
      At line 472 in file LPC23xx.inc
      At line 473 in file LPC23xx.inc
      At line 474 in file LPC23xx.inc
      At line 475 in file LPC23xx.inc
      At line 476 in file LPC23xx.inc
      At line 477 in file LPC23xx.inc
      At line 479 in file LPC23xx.inc

EMC_CONFIG FFE08008

Symbol: EMC_CONFIG
   Definitions
      At line 419 in file LPC23xx.inc
   Uses
      None
Comment: EMC_CONFIG unused
EMC_CTRL FFE08000

Symbol: EMC_CTRL
   Definitions
      At line 417 in file LPC23xx.inc
   Uses
      None
Comment: EMC_CTRL unused
EMC_DYN_APR FFE0803C

Symbol: EMC_DYN_APR
   Definitions
      At line 428 in file LPC23xx.inc
   Uses
      None
Comment: EMC_DYN_APR unused
EMC_DYN_CFG0 FFE08100

Symbol: EMC_DYN_CFG0
   Definitions
      At line 437 in file LPC23xx.inc
   Uses
      None
Comment: EMC_DYN_CFG0 unused
EMC_DYN_CFG1 FFE08140

Symbol: EMC_DYN_CFG1
   Definitions
      At line 439 in file LPC23xx.inc
   Uses
      None
Comment: EMC_DYN_CFG1 unused
EMC_DYN_CFG2 FFE08160

Symbol: EMC_DYN_CFG2
   Definitions
      At line 441 in file LPC23xx.inc



ARM Macro Assembler    Page 18 Alphabetic symbol ordering
Absolute symbols

   Uses
      None
Comment: EMC_DYN_CFG2 unused
EMC_DYN_CFG3 FFE08180

Symbol: EMC_DYN_CFG3
   Definitions
      At line 443 in file LPC23xx.inc
   Uses
      None
Comment: EMC_DYN_CFG3 unused
EMC_DYN_CTRL FFE08020

Symbol: EMC_DYN_CTRL
   Definitions
      At line 422 in file LPC23xx.inc
   Uses
      None
Comment: EMC_DYN_CTRL unused
EMC_DYN_DAL FFE08040

Symbol: EMC_DYN_DAL
   Definitions
      At line 429 in file LPC23xx.inc
   Uses
      None
Comment: EMC_DYN_DAL unused
EMC_DYN_MRD FFE08058

Symbol: EMC_DYN_MRD
   Definitions
      At line 435 in file LPC23xx.inc
   Uses
      None
Comment: EMC_DYN_MRD unused
EMC_DYN_RAS FFE08034

Symbol: EMC_DYN_RAS
   Definitions
      At line 426 in file LPC23xx.inc
   Uses
      None
Comment: EMC_DYN_RAS unused
EMC_DYN_RASCAS0 FFE08104

Symbol: EMC_DYN_RASCAS0
   Definitions
      At line 438 in file LPC23xx.inc
   Uses
      None
Comment: EMC_DYN_RASCAS0 unused
EMC_DYN_RASCAS1 FFE08144

Symbol: EMC_DYN_RASCAS1
   Definitions
      At line 440 in file LPC23xx.inc
   Uses
      None
Comment: EMC_DYN_RASCAS1 unused



ARM Macro Assembler    Page 19 Alphabetic symbol ordering
Absolute symbols

EMC_DYN_RASCAS2 FFE08164

Symbol: EMC_DYN_RASCAS2
   Definitions
      At line 442 in file LPC23xx.inc
   Uses
      None
Comment: EMC_DYN_RASCAS2 unused
EMC_DYN_RASCAS3 FFE08184

Symbol: EMC_DYN_RASCAS3
   Definitions
      At line 444 in file LPC23xx.inc
   Uses
      None
Comment: EMC_DYN_RASCAS3 unused
EMC_DYN_RC FFE08048

Symbol: EMC_DYN_RC
   Definitions
      At line 431 in file LPC23xx.inc
   Uses
      None
Comment: EMC_DYN_RC unused
EMC_DYN_RD_CFG FFE08028

Symbol: EMC_DYN_RD_CFG
   Definitions
      At line 424 in file LPC23xx.inc
   Uses
      None
Comment: EMC_DYN_RD_CFG unused
EMC_DYN_RFC FFE0804C

Symbol: EMC_DYN_RFC
   Definitions
      At line 432 in file LPC23xx.inc
   Uses
      None
Comment: EMC_DYN_RFC unused
EMC_DYN_RFSH FFE08024

Symbol: EMC_DYN_RFSH
   Definitions
      At line 423 in file LPC23xx.inc
   Uses
      None
Comment: EMC_DYN_RFSH unused
EMC_DYN_RP FFE08030

Symbol: EMC_DYN_RP
   Definitions
      At line 425 in file LPC23xx.inc
   Uses
      None
Comment: EMC_DYN_RP unused
EMC_DYN_RRD FFE08054

Symbol: EMC_DYN_RRD



ARM Macro Assembler    Page 20 Alphabetic symbol ordering
Absolute symbols

   Definitions
      At line 434 in file LPC23xx.inc
   Uses
      None
Comment: EMC_DYN_RRD unused
EMC_DYN_SREX FFE08038

Symbol: EMC_DYN_SREX
   Definitions
      At line 427 in file LPC23xx.inc
   Uses
      None
Comment: EMC_DYN_SREX unused
EMC_DYN_WR FFE08044

Symbol: EMC_DYN_WR
   Definitions
      At line 430 in file LPC23xx.inc
   Uses
      None
Comment: EMC_DYN_WR unused
EMC_DYN_XSR FFE08050

Symbol: EMC_DYN_XSR
   Definitions
      At line 433 in file LPC23xx.inc
   Uses
      None
Comment: EMC_DYN_XSR unused
EMC_STAT FFE08004

Symbol: EMC_STAT
   Definitions
      At line 418 in file LPC23xx.inc
   Uses
      None
Comment: EMC_STAT unused
EMC_STA_CFG0 FFE08200

Symbol: EMC_STA_CFG0
   Definitions
      At line 447 in file LPC23xx.inc
   Uses
      None
Comment: EMC_STA_CFG0 unused
EMC_STA_CFG1 FFE08220

Symbol: EMC_STA_CFG1
   Definitions
      At line 455 in file LPC23xx.inc
   Uses
      None
Comment: EMC_STA_CFG1 unused
EMC_STA_CFG2 FFE08240

Symbol: EMC_STA_CFG2
   Definitions
      At line 463 in file LPC23xx.inc
   Uses



ARM Macro Assembler    Page 21 Alphabetic symbol ordering
Absolute symbols

      None
Comment: EMC_STA_CFG2 unused
EMC_STA_CFG3 FFE08260

Symbol: EMC_STA_CFG3
   Definitions
      At line 471 in file LPC23xx.inc
   Uses
      None
Comment: EMC_STA_CFG3 unused
EMC_STA_EXT_WAIT FFE08880

Symbol: EMC_STA_EXT_WAIT
   Definitions
      At line 479 in file LPC23xx.inc
   Uses
      None
Comment: EMC_STA_EXT_WAIT unused
EMC_STA_WAITOEN0 FFE08208

Symbol: EMC_STA_WAITOEN0
   Definitions
      At line 449 in file LPC23xx.inc
   Uses
      None
Comment: EMC_STA_WAITOEN0 unused
EMC_STA_WAITOEN1 FFE08228

Symbol: EMC_STA_WAITOEN1
   Definitions
      At line 457 in file LPC23xx.inc
   Uses
      None
Comment: EMC_STA_WAITOEN1 unused
EMC_STA_WAITOEN2 FFE08248

Symbol: EMC_STA_WAITOEN2
   Definitions
      At line 465 in file LPC23xx.inc
   Uses
      None
Comment: EMC_STA_WAITOEN2 unused
EMC_STA_WAITOEN3 FFE08268

Symbol: EMC_STA_WAITOEN3
   Definitions
      At line 473 in file LPC23xx.inc
   Uses
      None
Comment: EMC_STA_WAITOEN3 unused
EMC_STA_WAITPAGE0 FFE08210

Symbol: EMC_STA_WAITPAGE0
   Definitions
      At line 451 in file LPC23xx.inc
   Uses
      None
Comment: EMC_STA_WAITPAGE0 unused
EMC_STA_WAITPAGE1 FFE08230



ARM Macro Assembler    Page 22 Alphabetic symbol ordering
Absolute symbols


Symbol: EMC_STA_WAITPAGE1
   Definitions
      At line 459 in file LPC23xx.inc
   Uses
      None
Comment: EMC_STA_WAITPAGE1 unused
EMC_STA_WAITPAGE2 FFE08250

Symbol: EMC_STA_WAITPAGE2
   Definitions
      At line 467 in file LPC23xx.inc
   Uses
      None
Comment: EMC_STA_WAITPAGE2 unused
EMC_STA_WAITPAGE3 FFE08270

Symbol: EMC_STA_WAITPAGE3
   Definitions
      At line 475 in file LPC23xx.inc
   Uses
      None
Comment: EMC_STA_WAITPAGE3 unused
EMC_STA_WAITRD0 FFE0820C

Symbol: EMC_STA_WAITRD0
   Definitions
      At line 450 in file LPC23xx.inc
   Uses
      None
Comment: EMC_STA_WAITRD0 unused
EMC_STA_WAITRD1 FFE0822C

Symbol: EMC_STA_WAITRD1
   Definitions
      At line 458 in file LPC23xx.inc
   Uses
      None
Comment: EMC_STA_WAITRD1 unused
EMC_STA_WAITRD2 FFE0824C

Symbol: EMC_STA_WAITRD2
   Definitions
      At line 466 in file LPC23xx.inc
   Uses
      None
Comment: EMC_STA_WAITRD2 unused
EMC_STA_WAITRD3 FFE0826C

Symbol: EMC_STA_WAITRD3
   Definitions
      At line 474 in file LPC23xx.inc
   Uses
      None
Comment: EMC_STA_WAITRD3 unused
EMC_STA_WAITTURN0 FFE08218

Symbol: EMC_STA_WAITTURN0
   Definitions



ARM Macro Assembler    Page 23 Alphabetic symbol ordering
Absolute symbols

      At line 453 in file LPC23xx.inc
   Uses
      None
Comment: EMC_STA_WAITTURN0 unused
EMC_STA_WAITTURN1 FFE08238

Symbol: EMC_STA_WAITTURN1
   Definitions
      At line 461 in file LPC23xx.inc
   Uses
      None
Comment: EMC_STA_WAITTURN1 unused
EMC_STA_WAITTURN2 FFE08258

Symbol: EMC_STA_WAITTURN2
   Definitions
      At line 469 in file LPC23xx.inc
   Uses
      None
Comment: EMC_STA_WAITTURN2 unused
EMC_STA_WAITTURN3 FFE08278

Symbol: EMC_STA_WAITTURN3
   Definitions
      At line 477 in file LPC23xx.inc
   Uses
      None
Comment: EMC_STA_WAITTURN3 unused
EMC_STA_WAITWEN0 FFE08204

Symbol: EMC_STA_WAITWEN0
   Definitions
      At line 448 in file LPC23xx.inc
   Uses
      None
Comment: EMC_STA_WAITWEN0 unused
EMC_STA_WAITWEN1 FFE08224

Symbol: EMC_STA_WAITWEN1
   Definitions
      At line 456 in file LPC23xx.inc
   Uses
      None
Comment: EMC_STA_WAITWEN1 unused
EMC_STA_WAITWEN2 FFE08244

Symbol: EMC_STA_WAITWEN2
   Definitions
      At line 464 in file LPC23xx.inc
   Uses
      None
Comment: EMC_STA_WAITWEN2 unused
EMC_STA_WAITWEN3 FFE08264

Symbol: EMC_STA_WAITWEN3
   Definitions
      At line 472 in file LPC23xx.inc
   Uses
      None



ARM Macro Assembler    Page 24 Alphabetic symbol ordering
Absolute symbols

Comment: EMC_STA_WAITWEN3 unused
EMC_STA_WAITWR0 FFE08214

Symbol: EMC_STA_WAITWR0
   Definitions
      At line 452 in file LPC23xx.inc
   Uses
      None
Comment: EMC_STA_WAITWR0 unused
EMC_STA_WAITWR1 FFE08234

Symbol: EMC_STA_WAITWR1
   Definitions
      At line 460 in file LPC23xx.inc
   Uses
      None
Comment: EMC_STA_WAITWR1 unused
EMC_STA_WAITWR2 FFE08254

Symbol: EMC_STA_WAITWR2
   Definitions
      At line 468 in file LPC23xx.inc
   Uses
      None
Comment: EMC_STA_WAITWR2 unused
EMC_STA_WAITWR3 FFE08274

Symbol: EMC_STA_WAITWR3
   Definitions
      At line 476 in file LPC23xx.inc
   Uses
      None
Comment: EMC_STA_WAITWR3 unused
EOT_INT_CLR FFE0C2A4

Symbol: EOT_INT_CLR
   Definitions
      At line 994 in file LPC23xx.inc
   Uses
      None
Comment: EOT_INT_CLR unused
EOT_INT_SET FFE0C2A8

Symbol: EOT_INT_SET
   Definitions
      At line 995 in file LPC23xx.inc
   Uses
      None
Comment: EOT_INT_SET unused
EOT_INT_STAT FFE0C2A0

Symbol: EOT_INT_STAT
   Definitions
      At line 993 in file LPC23xx.inc
   Uses
      None
Comment: EOT_INT_STAT unused
EP_DMA_DIS FFE0C28C




ARM Macro Assembler    Page 25 Alphabetic symbol ordering
Absolute symbols

Symbol: EP_DMA_DIS
   Definitions
      At line 990 in file LPC23xx.inc
   Uses
      None
Comment: EP_DMA_DIS unused
EP_DMA_EN FFE0C288

Symbol: EP_DMA_EN
   Definitions
      At line 989 in file LPC23xx.inc
   Uses
      None
Comment: EP_DMA_EN unused
EP_DMA_STAT FFE0C284

Symbol: EP_DMA_STAT
   Definitions
      At line 988 in file LPC23xx.inc
   Uses
      None
Comment: EP_DMA_STAT unused
EP_INDEX FFE0C248

Symbol: EP_INDEX
   Definitions
      At line 969 in file LPC23xx.inc
   Uses
      None
Comment: EP_INDEX unused
EP_INT_CLR FFE0C238

Symbol: EP_INT_CLR
   Definitions
      At line 963 in file LPC23xx.inc
   Uses
      None
Comment: EP_INT_CLR unused
EP_INT_EN FFE0C234

Symbol: EP_INT_EN
   Definitions
      At line 962 in file LPC23xx.inc
   Uses
      None
Comment: EP_INT_EN unused
EP_INT_PRIO FFE0C240

Symbol: EP_INT_PRIO
   Definitions
      At line 965 in file LPC23xx.inc
   Uses
      None
Comment: EP_INT_PRIO unused
EP_INT_SET FFE0C23C

Symbol: EP_INT_SET
   Definitions
      At line 964 in file LPC23xx.inc



ARM Macro Assembler    Page 26 Alphabetic symbol ordering
Absolute symbols

   Uses
      None
Comment: EP_INT_SET unused
EP_INT_STAT FFE0C230

Symbol: EP_INT_STAT
   Definitions
      At line 961 in file LPC23xx.inc
   Uses
      None
Comment: EP_INT_STAT unused
EXTINT E01FC140

Symbol: EXTINT
   Definitions
      At line 385 in file LPC23xx.inc
   Uses
      None
Comment: EXTINT unused
EXTMODE E01FC148

Symbol: EXTMODE
   Definitions
      At line 387 in file LPC23xx.inc
   Uses
      None
Comment: EXTMODE unused
EXTPOLAR E01FC14C

Symbol: EXTPOLAR
   Definitions
      At line 388 in file LPC23xx.inc
   Uses
      None
Comment: EXTPOLAR unused
FIO0CLR 3FFFC01C

Symbol: FIO0CLR
   Definitions
      At line 148 in file LPC23xx.inc
   Uses
      None
Comment: FIO0CLR unused
FIO0CLR0 3FFFC01C

Symbol: FIO0CLR0
   Definitions
      At line 319 in file LPC23xx.inc
   Uses
      None
Comment: FIO0CLR0 unused
FIO0CLR1 3FFFC01D

Symbol: FIO0CLR1
   Definitions
      At line 325 in file LPC23xx.inc
   Uses
      None
Comment: FIO0CLR1 unused



ARM Macro Assembler    Page 27 Alphabetic symbol ordering
Absolute symbols

FIO0CLR2 3FFFC01E

Symbol: FIO0CLR2
   Definitions
      At line 331 in file LPC23xx.inc
   Uses
      None
Comment: FIO0CLR2 unused
FIO0CLR3 3FFFC01F

Symbol: FIO0CLR3
   Definitions
      At line 337 in file LPC23xx.inc
   Uses
      None
Comment: FIO0CLR3 unused
FIO0CLRL 3FFFC01C

Symbol: FIO0CLRL
   Definitions
      At line 343 in file LPC23xx.inc
   Uses
      None
Comment: FIO0CLRL unused
FIO0CLRU 3FFFC01E

Symbol: FIO0CLRU
   Definitions
      At line 349 in file LPC23xx.inc
   Uses
      None
Comment: FIO0CLRU unused
FIO0DIR 3FFFC000

Symbol: FIO0DIR
   Definitions
      At line 144 in file LPC23xx.inc
   Uses
      None
Comment: FIO0DIR unused
FIO0DIR0 3FFFC000

Symbol: FIO0DIR0
   Definitions
      At line 175 in file LPC23xx.inc
   Uses
      None
Comment: FIO0DIR0 unused
FIO0DIR1 3FFFC001

Symbol: FIO0DIR1
   Definitions
      At line 181 in file LPC23xx.inc
   Uses
      None
Comment: FIO0DIR1 unused
FIO0DIR2 3FFFC002

Symbol: FIO0DIR2



ARM Macro Assembler    Page 28 Alphabetic symbol ordering
Absolute symbols

   Definitions
      At line 187 in file LPC23xx.inc
   Uses
      None
Comment: FIO0DIR2 unused
FIO0DIR3 3FFFC003

Symbol: FIO0DIR3
   Definitions
      At line 193 in file LPC23xx.inc
   Uses
      None
Comment: FIO0DIR3 unused
FIO0DIRL 3FFFC000

Symbol: FIO0DIRL
   Definitions
      At line 199 in file LPC23xx.inc
   Uses
      None
Comment: FIO0DIRL unused
FIO0DIRU 3FFFC002

Symbol: FIO0DIRU
   Definitions
      At line 205 in file LPC23xx.inc
   Uses
      None
Comment: FIO0DIRU unused
FIO0MASK 3FFFC010

Symbol: FIO0MASK
   Definitions
      At line 145 in file LPC23xx.inc
   Uses
      None
Comment: FIO0MASK unused
FIO0MASK0 3FFFC010

Symbol: FIO0MASK0
   Definitions
      At line 211 in file LPC23xx.inc
   Uses
      None
Comment: FIO0MASK0 unused
FIO0MASK1 3FFFC011

Symbol: FIO0MASK1
   Definitions
      At line 217 in file LPC23xx.inc
   Uses
      None
Comment: FIO0MASK1 unused
FIO0MASK2 3FFFC012

Symbol: FIO0MASK2
   Definitions
      At line 223 in file LPC23xx.inc
   Uses



ARM Macro Assembler    Page 29 Alphabetic symbol ordering
Absolute symbols

      None
Comment: FIO0MASK2 unused
FIO0MASK3 3FFFC013

Symbol: FIO0MASK3
   Definitions
      At line 229 in file LPC23xx.inc
   Uses
      None
Comment: FIO0MASK3 unused
FIO0MASKL 3FFFC010

Symbol: FIO0MASKL
   Definitions
      At line 235 in file LPC23xx.inc
   Uses
      None
Comment: FIO0MASKL unused
FIO0MASKU 3FFFC012

Symbol: FIO0MASKU
   Definitions
      At line 241 in file LPC23xx.inc
   Uses
      None
Comment: FIO0MASKU unused
FIO0PIN 3FFFC014

Symbol: FIO0PIN
   Definitions
      At line 146 in file LPC23xx.inc
   Uses
      None
Comment: FIO0PIN unused
FIO0PIN0 3FFFC014

Symbol: FIO0PIN0
   Definitions
      At line 247 in file LPC23xx.inc
   Uses
      None
Comment: FIO0PIN0 unused
FIO0PIN1 3FFFC015

Symbol: FIO0PIN1
   Definitions
      At line 253 in file LPC23xx.inc
   Uses
      None
Comment: FIO0PIN1 unused
FIO0PIN2 3FFFC016

Symbol: FIO0PIN2
   Definitions
      At line 259 in file LPC23xx.inc
   Uses
      None
Comment: FIO0PIN2 unused
FIO0PIN3 3FFFC017



ARM Macro Assembler    Page 30 Alphabetic symbol ordering
Absolute symbols


Symbol: FIO0PIN3
   Definitions
      At line 265 in file LPC23xx.inc
   Uses
      None
Comment: FIO0PIN3 unused
FIO0PINL 3FFFC014

Symbol: FIO0PINL
   Definitions
      At line 271 in file LPC23xx.inc
   Uses
      None
Comment: FIO0PINL unused
FIO0PINU 3FFFC016

Symbol: FIO0PINU
   Definitions
      At line 277 in file LPC23xx.inc
   Uses
      None
Comment: FIO0PINU unused
FIO0SET 3FFFC018

Symbol: FIO0SET
   Definitions
      At line 147 in file LPC23xx.inc
   Uses
      None
Comment: FIO0SET unused
FIO0SET0 3FFFC018

Symbol: FIO0SET0
   Definitions
      At line 283 in file LPC23xx.inc
   Uses
      None
Comment: FIO0SET0 unused
FIO0SET1 3FFFC019

Symbol: FIO0SET1
   Definitions
      At line 289 in file LPC23xx.inc
   Uses
      None
Comment: FIO0SET1 unused
FIO0SET2 3FFFC01A

Symbol: FIO0SET2
   Definitions
      At line 295 in file LPC23xx.inc
   Uses
      None
Comment: FIO0SET2 unused
FIO0SET3 3FFFC01B

Symbol: FIO0SET3
   Definitions



ARM Macro Assembler    Page 31 Alphabetic symbol ordering
Absolute symbols

      At line 301 in file LPC23xx.inc
   Uses
      None
Comment: FIO0SET3 unused
FIO0SETL 3FFFC018

Symbol: FIO0SETL
   Definitions
      At line 307 in file LPC23xx.inc
   Uses
      None
Comment: FIO0SETL unused
FIO0SETU 3FFFC01A

Symbol: FIO0SETU
   Definitions
      At line 313 in file LPC23xx.inc
   Uses
      None
Comment: FIO0SETU unused
FIO1CLR 3FFFC03C

Symbol: FIO1CLR
   Definitions
      At line 154 in file LPC23xx.inc
   Uses
      None
Comment: FIO1CLR unused
FIO1CLR0 3FFFC03C

Symbol: FIO1CLR0
   Definitions
      At line 320 in file LPC23xx.inc
   Uses
      None
Comment: FIO1CLR0 unused
FIO1CLR1 3FFFC02D

Symbol: FIO1CLR1
   Definitions
      At line 326 in file LPC23xx.inc
   Uses
      None
Comment: FIO1CLR1 unused
FIO1CLR2 3FFFC03E

Symbol: FIO1CLR2
   Definitions
      At line 332 in file LPC23xx.inc
   Uses
      None
Comment: FIO1CLR2 unused
FIO1CLR3 3FFFC03F

Symbol: FIO1CLR3
   Definitions
      At line 338 in file LPC23xx.inc
   Uses
      None



ARM Macro Assembler    Page 32 Alphabetic symbol ordering
Absolute symbols

Comment: FIO1CLR3 unused
FIO1CLRL 3FFFC03C

Symbol: FIO1CLRL
   Definitions
      At line 344 in file LPC23xx.inc
   Uses
      None
Comment: FIO1CLRL unused
FIO1CLRU 3FFFC03E

Symbol: FIO1CLRU
   Definitions
      At line 350 in file LPC23xx.inc
   Uses
      None
Comment: FIO1CLRU unused
FIO1DIR 3FFFC020

Symbol: FIO1DIR
   Definitions
      At line 150 in file LPC23xx.inc
   Uses
      None
Comment: FIO1DIR unused
FIO1DIR0 3FFFC020

Symbol: FIO1DIR0
   Definitions
      At line 176 in file LPC23xx.inc
   Uses
      None
Comment: FIO1DIR0 unused
FIO1DIR1 3FFFC021

Symbol: FIO1DIR1
   Definitions
      At line 182 in file LPC23xx.inc
   Uses
      None
Comment: FIO1DIR1 unused
FIO1DIR2 3FFFC022

Symbol: FIO1DIR2
   Definitions
      At line 188 in file LPC23xx.inc
   Uses
      None
Comment: FIO1DIR2 unused
FIO1DIR3 3FFFC023

Symbol: FIO1DIR3
   Definitions
      At line 194 in file LPC23xx.inc
   Uses
      None
Comment: FIO1DIR3 unused
FIO1DIRL 3FFFC020




ARM Macro Assembler    Page 33 Alphabetic symbol ordering
Absolute symbols

Symbol: FIO1DIRL
   Definitions
      At line 200 in file LPC23xx.inc
   Uses
      None
Comment: FIO1DIRL unused
FIO1DIRU 3FFFC022

Symbol: FIO1DIRU
   Definitions
      At line 206 in file LPC23xx.inc
   Uses
      None
Comment: FIO1DIRU unused
FIO1MASK 3FFFC030

Symbol: FIO1MASK
   Definitions
      At line 151 in file LPC23xx.inc
   Uses
      None
Comment: FIO1MASK unused
FIO1MASK0 3FFFC030

Symbol: FIO1MASK0
   Definitions
      At line 212 in file LPC23xx.inc
   Uses
      None
Comment: FIO1MASK0 unused
FIO1MASK1 3FFFC021

Symbol: FIO1MASK1
   Definitions
      At line 218 in file LPC23xx.inc
   Uses
      None
Comment: FIO1MASK1 unused
FIO1MASK2 3FFFC032

Symbol: FIO1MASK2
   Definitions
      At line 224 in file LPC23xx.inc
   Uses
      None
Comment: FIO1MASK2 unused
FIO1MASK3 3FFFC033

Symbol: FIO1MASK3
   Definitions
      At line 230 in file LPC23xx.inc
   Uses
      None
Comment: FIO1MASK3 unused
FIO1MASKL 3FFFC030

Symbol: FIO1MASKL
   Definitions
      At line 236 in file LPC23xx.inc



ARM Macro Assembler    Page 34 Alphabetic symbol ordering
Absolute symbols

   Uses
      None
Comment: FIO1MASKL unused
FIO1MASKU 3FFFC032

Symbol: FIO1MASKU
   Definitions
      At line 242 in file LPC23xx.inc
   Uses
      None
Comment: FIO1MASKU unused
FIO1PIN 3FFFC034

Symbol: FIO1PIN
   Definitions
      At line 152 in file LPC23xx.inc
   Uses
      None
Comment: FIO1PIN unused
FIO1PIN0 3FFFC034

Symbol: FIO1PIN0
   Definitions
      At line 248 in file LPC23xx.inc
   Uses
      None
Comment: FIO1PIN0 unused
FIO1PIN1 3FFFC025

Symbol: FIO1PIN1
   Definitions
      At line 254 in file LPC23xx.inc
   Uses
      None
Comment: FIO1PIN1 unused
FIO1PIN2 3FFFC036

Symbol: FIO1PIN2
   Definitions
      At line 260 in file LPC23xx.inc
   Uses
      None
Comment: FIO1PIN2 unused
FIO1PIN3 3FFFC037

Symbol: FIO1PIN3
   Definitions
      At line 266 in file LPC23xx.inc
   Uses
      None
Comment: FIO1PIN3 unused
FIO1PINL 3FFFC034

Symbol: FIO1PINL
   Definitions
      At line 272 in file LPC23xx.inc
   Uses
      None
Comment: FIO1PINL unused



ARM Macro Assembler    Page 35 Alphabetic symbol ordering
Absolute symbols

FIO1PINU 3FFFC036

Symbol: FIO1PINU
   Definitions
      At line 278 in file LPC23xx.inc
   Uses
      None
Comment: FIO1PINU unused
FIO1SET 3FFFC038

Symbol: FIO1SET
   Definitions
      At line 153 in file LPC23xx.inc
   Uses
      None
Comment: FIO1SET unused
FIO1SET0 3FFFC038

Symbol: FIO1SET0
   Definitions
      At line 284 in file LPC23xx.inc
   Uses
      None
Comment: FIO1SET0 unused
FIO1SET1 3FFFC029

Symbol: FIO1SET1
   Definitions
      At line 290 in file LPC23xx.inc
   Uses
      None
Comment: FIO1SET1 unused
FIO1SET2 3FFFC03A

Symbol: FIO1SET2
   Definitions
      At line 296 in file LPC23xx.inc
   Uses
      None
Comment: FIO1SET2 unused
FIO1SET3 3FFFC03B

Symbol: FIO1SET3
   Definitions
      At line 302 in file LPC23xx.inc
   Uses
      None
Comment: FIO1SET3 unused
FIO1SETL 3FFFC038

Symbol: FIO1SETL
   Definitions
      At line 308 in file LPC23xx.inc
   Uses
      None
Comment: FIO1SETL unused
FIO1SETU 3FFFC03A

Symbol: FIO1SETU



ARM Macro Assembler    Page 36 Alphabetic symbol ordering
Absolute symbols

   Definitions
      At line 314 in file LPC23xx.inc
   Uses
      None
Comment: FIO1SETU unused
FIO2CLR 3FFFC05C

Symbol: FIO2CLR
   Definitions
      At line 160 in file LPC23xx.inc
   Uses
      None
Comment: FIO2CLR unused
FIO2CLR0 3FFFC05C

Symbol: FIO2CLR0
   Definitions
      At line 321 in file LPC23xx.inc
   Uses
      None
Comment: FIO2CLR0 unused
FIO2CLR1 3FFFC05D

Symbol: FIO2CLR1
   Definitions
      At line 327 in file LPC23xx.inc
   Uses
      None
Comment: FIO2CLR1 unused
FIO2CLR2 3FFFC05E

Symbol: FIO2CLR2
   Definitions
      At line 333 in file LPC23xx.inc
   Uses
      None
Comment: FIO2CLR2 unused
FIO2CLR3 3FFFC05F

Symbol: FIO2CLR3
   Definitions
      At line 339 in file LPC23xx.inc
   Uses
      None
Comment: FIO2CLR3 unused
FIO2CLRL 3FFFC05C

Symbol: FIO2CLRL
   Definitions
      At line 345 in file LPC23xx.inc
   Uses
      None
Comment: FIO2CLRL unused
FIO2CLRU 3FFFC05E

Symbol: FIO2CLRU
   Definitions
      At line 351 in file LPC23xx.inc
   Uses



ARM Macro Assembler    Page 37 Alphabetic symbol ordering
Absolute symbols

      None
Comment: FIO2CLRU unused
FIO2DIR 3FFFC040

Symbol: FIO2DIR
   Definitions
      At line 156 in file LPC23xx.inc
   Uses
      None
Comment: FIO2DIR unused
FIO2DIR0 3FFFC040

Symbol: FIO2DIR0
   Definitions
      At line 177 in file LPC23xx.inc
   Uses
      None
Comment: FIO2DIR0 unused
FIO2DIR1 3FFFC041

Symbol: FIO2DIR1
   Definitions
      At line 183 in file LPC23xx.inc
   Uses
      None
Comment: FIO2DIR1 unused
FIO2DIR2 3FFFC042

Symbol: FIO2DIR2
   Definitions
      At line 189 in file LPC23xx.inc
   Uses
      None
Comment: FIO2DIR2 unused
FIO2DIR3 3FFFC043

Symbol: FIO2DIR3
   Definitions
      At line 195 in file LPC23xx.inc
   Uses
      None
Comment: FIO2DIR3 unused
FIO2DIRL 3FFFC040

Symbol: FIO2DIRL
   Definitions
      At line 201 in file LPC23xx.inc
   Uses
      None
Comment: FIO2DIRL unused
FIO2DIRU 3FFFC042

Symbol: FIO2DIRU
   Definitions
      At line 207 in file LPC23xx.inc
   Uses
      None
Comment: FIO2DIRU unused
FIO2MASK 3FFFC050



ARM Macro Assembler    Page 38 Alphabetic symbol ordering
Absolute symbols


Symbol: FIO2MASK
   Definitions
      At line 157 in file LPC23xx.inc
   Uses
      None
Comment: FIO2MASK unused
FIO2MASK0 3FFFC050

Symbol: FIO2MASK0
   Definitions
      At line 213 in file LPC23xx.inc
   Uses
      None
Comment: FIO2MASK0 unused
FIO2MASK1 3FFFC051

Symbol: FIO2MASK1
   Definitions
      At line 219 in file LPC23xx.inc
   Uses
      None
Comment: FIO2MASK1 unused
FIO2MASK2 3FFFC052

Symbol: FIO2MASK2
   Definitions
      At line 225 in file LPC23xx.inc
   Uses
      None
Comment: FIO2MASK2 unused
FIO2MASK3 3FFFC053

Symbol: FIO2MASK3
   Definitions
      At line 231 in file LPC23xx.inc
   Uses
      None
Comment: FIO2MASK3 unused
FIO2MASKL 3FFFC050

Symbol: FIO2MASKL
   Definitions
      At line 237 in file LPC23xx.inc
   Uses
      None
Comment: FIO2MASKL unused
FIO2MASKU 3FFFC052

Symbol: FIO2MASKU
   Definitions
      At line 243 in file LPC23xx.inc
   Uses
      None
Comment: FIO2MASKU unused
FIO2PIN 3FFFC054

Symbol: FIO2PIN
   Definitions



ARM Macro Assembler    Page 39 Alphabetic symbol ordering
Absolute symbols

      At line 158 in file LPC23xx.inc
   Uses
      None
Comment: FIO2PIN unused
FIO2PIN0 3FFFC054

Symbol: FIO2PIN0
   Definitions
      At line 249 in file LPC23xx.inc
   Uses
      None
Comment: FIO2PIN0 unused
FIO2PIN1 3FFFC055

Symbol: FIO2PIN1
   Definitions
      At line 255 in file LPC23xx.inc
   Uses
      None
Comment: FIO2PIN1 unused
FIO2PIN2 3FFFC056

Symbol: FIO2PIN2
   Definitions
      At line 261 in file LPC23xx.inc
   Uses
      None
Comment: FIO2PIN2 unused
FIO2PIN3 3FFFC057

Symbol: FIO2PIN3
   Definitions
      At line 267 in file LPC23xx.inc
   Uses
      None
Comment: FIO2PIN3 unused
FIO2PINL 3FFFC054

Symbol: FIO2PINL
   Definitions
      At line 273 in file LPC23xx.inc
   Uses
      None
Comment: FIO2PINL unused
FIO2PINU 3FFFC056

Symbol: FIO2PINU
   Definitions
      At line 279 in file LPC23xx.inc
   Uses
      None
Comment: FIO2PINU unused
FIO2SET 3FFFC058

Symbol: FIO2SET
   Definitions
      At line 159 in file LPC23xx.inc
   Uses
      None



ARM Macro Assembler    Page 40 Alphabetic symbol ordering
Absolute symbols

Comment: FIO2SET unused
FIO2SET0 3FFFC058

Symbol: FIO2SET0
   Definitions
      At line 285 in file LPC23xx.inc
   Uses
      None
Comment: FIO2SET0 unused
FIO2SET1 3FFFC059

Symbol: FIO2SET1
   Definitions
      At line 291 in file LPC23xx.inc
   Uses
      None
Comment: FIO2SET1 unused
FIO2SET2 3FFFC05A

Symbol: FIO2SET2
   Definitions
      At line 297 in file LPC23xx.inc
   Uses
      None
Comment: FIO2SET2 unused
FIO2SET3 3FFFC05B

Symbol: FIO2SET3
   Definitions
      At line 303 in file LPC23xx.inc
   Uses
      None
Comment: FIO2SET3 unused
FIO2SETL 3FFFC058

Symbol: FIO2SETL
   Definitions
      At line 309 in file LPC23xx.inc
   Uses
      None
Comment: FIO2SETL unused
FIO2SETU 3FFFC05A

Symbol: FIO2SETU
   Definitions
      At line 315 in file LPC23xx.inc
   Uses
      None
Comment: FIO2SETU unused
FIO3CLR 3FFFC07C

Symbol: FIO3CLR
   Definitions
      At line 166 in file LPC23xx.inc
   Uses
      None
Comment: FIO3CLR unused
FIO3CLR0 3FFFC07C




ARM Macro Assembler    Page 41 Alphabetic symbol ordering
Absolute symbols

Symbol: FIO3CLR0
   Definitions
      At line 322 in file LPC23xx.inc
   Uses
      None
Comment: FIO3CLR0 unused
FIO3CLR1 3FFFC07D

Symbol: FIO3CLR1
   Definitions
      At line 328 in file LPC23xx.inc
   Uses
      None
Comment: FIO3CLR1 unused
FIO3CLR2 3FFFC07E

Symbol: FIO3CLR2
   Definitions
      At line 334 in file LPC23xx.inc
   Uses
      None
Comment: FIO3CLR2 unused
FIO3CLR3 3FFFC07F

Symbol: FIO3CLR3
   Definitions
      At line 340 in file LPC23xx.inc
   Uses
      None
Comment: FIO3CLR3 unused
FIO3CLRL 3FFFC07C

Symbol: FIO3CLRL
   Definitions
      At line 346 in file LPC23xx.inc
   Uses
      None
Comment: FIO3CLRL unused
FIO3CLRU 3FFFC07E

Symbol: FIO3CLRU
   Definitions
      At line 352 in file LPC23xx.inc
   Uses
      None
Comment: FIO3CLRU unused
FIO3DIR 3FFFC060

Symbol: FIO3DIR
   Definitions
      At line 162 in file LPC23xx.inc
   Uses
      None
Comment: FIO3DIR unused
FIO3DIR0 3FFFC060

Symbol: FIO3DIR0
   Definitions
      At line 178 in file LPC23xx.inc



ARM Macro Assembler    Page 42 Alphabetic symbol ordering
Absolute symbols

   Uses
      None
Comment: FIO3DIR0 unused
FIO3DIR1 3FFFC061

Symbol: FIO3DIR1
   Definitions
      At line 184 in file LPC23xx.inc
   Uses
      None
Comment: FIO3DIR1 unused
FIO3DIR2 3FFFC062

Symbol: FIO3DIR2
   Definitions
      At line 190 in file LPC23xx.inc
   Uses
      None
Comment: FIO3DIR2 unused
FIO3DIR3 3FFFC063

Symbol: FIO3DIR3
   Definitions
      At line 196 in file LPC23xx.inc
   Uses
      None
Comment: FIO3DIR3 unused
FIO3DIRL 3FFFC060

Symbol: FIO3DIRL
   Definitions
      At line 202 in file LPC23xx.inc
   Uses
      None
Comment: FIO3DIRL unused
FIO3DIRU 3FFFC062

Symbol: FIO3DIRU
   Definitions
      At line 208 in file LPC23xx.inc
   Uses
      None
Comment: FIO3DIRU unused
FIO3MASK 3FFFC070

Symbol: FIO3MASK
   Definitions
      At line 163 in file LPC23xx.inc
   Uses
      None
Comment: FIO3MASK unused
FIO3MASK0 3FFFC070

Symbol: FIO3MASK0
   Definitions
      At line 214 in file LPC23xx.inc
   Uses
      None
Comment: FIO3MASK0 unused



ARM Macro Assembler    Page 43 Alphabetic symbol ordering
Absolute symbols

FIO3MASK1 3FFFC071

Symbol: FIO3MASK1
   Definitions
      At line 220 in file LPC23xx.inc
   Uses
      None
Comment: FIO3MASK1 unused
FIO3MASK2 3FFFC072

Symbol: FIO3MASK2
   Definitions
      At line 226 in file LPC23xx.inc
   Uses
      None
Comment: FIO3MASK2 unused
FIO3MASK3 3FFFC073

Symbol: FIO3MASK3
   Definitions
      At line 232 in file LPC23xx.inc
   Uses
      None
Comment: FIO3MASK3 unused
FIO3MASKL 3FFFC070

Symbol: FIO3MASKL
   Definitions
      At line 238 in file LPC23xx.inc
   Uses
      None
Comment: FIO3MASKL unused
FIO3MASKU 3FFFC072

Symbol: FIO3MASKU
   Definitions
      At line 244 in file LPC23xx.inc
   Uses
      None
Comment: FIO3MASKU unused
FIO3PIN 3FFFC074

Symbol: FIO3PIN
   Definitions
      At line 164 in file LPC23xx.inc
   Uses
      None
Comment: FIO3PIN unused
FIO3PIN0 3FFFC074

Symbol: FIO3PIN0
   Definitions
      At line 250 in file LPC23xx.inc
   Uses
      None
Comment: FIO3PIN0 unused
FIO3PIN1 3FFFC075

Symbol: FIO3PIN1



ARM Macro Assembler    Page 44 Alphabetic symbol ordering
Absolute symbols

   Definitions
      At line 256 in file LPC23xx.inc
   Uses
      None
Comment: FIO3PIN1 unused
FIO3PIN2 3FFFC076

Symbol: FIO3PIN2
   Definitions
      At line 262 in file LPC23xx.inc
   Uses
      None
Comment: FIO3PIN2 unused
FIO3PIN3 3FFFC077

Symbol: FIO3PIN3
   Definitions
      At line 268 in file LPC23xx.inc
   Uses
      None
Comment: FIO3PIN3 unused
FIO3PINL 3FFFC074

Symbol: FIO3PINL
   Definitions
      At line 274 in file LPC23xx.inc
   Uses
      None
Comment: FIO3PINL unused
FIO3PINU 3FFFC076

Symbol: FIO3PINU
   Definitions
      At line 280 in file LPC23xx.inc
   Uses
      None
Comment: FIO3PINU unused
FIO3SET 3FFFC078

Symbol: FIO3SET
   Definitions
      At line 165 in file LPC23xx.inc
   Uses
      None
Comment: FIO3SET unused
FIO3SET0 3FFFC078

Symbol: FIO3SET0
   Definitions
      At line 286 in file LPC23xx.inc
   Uses
      None
Comment: FIO3SET0 unused
FIO3SET1 3FFFC079

Symbol: FIO3SET1
   Definitions
      At line 292 in file LPC23xx.inc
   Uses



ARM Macro Assembler    Page 45 Alphabetic symbol ordering
Absolute symbols

      None
Comment: FIO3SET1 unused
FIO3SET2 3FFFC07A

Symbol: FIO3SET2
   Definitions
      At line 298 in file LPC23xx.inc
   Uses
      None
Comment: FIO3SET2 unused
FIO3SET3 3FFFC07B

Symbol: FIO3SET3
   Definitions
      At line 304 in file LPC23xx.inc
   Uses
      None
Comment: FIO3SET3 unused
FIO3SETL 3FFFC078

Symbol: FIO3SETL
   Definitions
      At line 310 in file LPC23xx.inc
   Uses
      None
Comment: FIO3SETL unused
FIO3SETU 3FFFC07A

Symbol: FIO3SETU
   Definitions
      At line 316 in file LPC23xx.inc
   Uses
      None
Comment: FIO3SETU unused
FIO4CLR 3FFFC09C

Symbol: FIO4CLR
   Definitions
      At line 172 in file LPC23xx.inc
   Uses
      None
Comment: FIO4CLR unused
FIO4CLR0 3FFFC09C

Symbol: FIO4CLR0
   Definitions
      At line 323 in file LPC23xx.inc
   Uses
      None
Comment: FIO4CLR0 unused
FIO4CLR1 3FFFC09D

Symbol: FIO4CLR1
   Definitions
      At line 329 in file LPC23xx.inc
   Uses
      None
Comment: FIO4CLR1 unused
FIO4CLR2 3FFFC09E



ARM Macro Assembler    Page 46 Alphabetic symbol ordering
Absolute symbols


Symbol: FIO4CLR2
   Definitions
      At line 335 in file LPC23xx.inc
   Uses
      None
Comment: FIO4CLR2 unused
FIO4CLR3 3FFFC09F

Symbol: FIO4CLR3
   Definitions
      At line 341 in file LPC23xx.inc
   Uses
      None
Comment: FIO4CLR3 unused
FIO4CLRL 3FFFC09C

Symbol: FIO4CLRL
   Definitions
      At line 347 in file LPC23xx.inc
   Uses
      None
Comment: FIO4CLRL unused
FIO4CLRU 3FFFC09E

Symbol: FIO4CLRU
   Definitions
      At line 353 in file LPC23xx.inc
   Uses
      None
Comment: FIO4CLRU unused
FIO4DIR 3FFFC080

Symbol: FIO4DIR
   Definitions
      At line 168 in file LPC23xx.inc
   Uses
      None
Comment: FIO4DIR unused
FIO4DIR0 3FFFC080

Symbol: FIO4DIR0
   Definitions
      At line 179 in file LPC23xx.inc
   Uses
      None
Comment: FIO4DIR0 unused
FIO4DIR1 3FFFC081

Symbol: FIO4DIR1
   Definitions
      At line 185 in file LPC23xx.inc
   Uses
      None
Comment: FIO4DIR1 unused
FIO4DIR2 3FFFC082

Symbol: FIO4DIR2
   Definitions



ARM Macro Assembler    Page 47 Alphabetic symbol ordering
Absolute symbols

      At line 191 in file LPC23xx.inc
   Uses
      None
Comment: FIO4DIR2 unused
FIO4DIR3 3FFFC083

Symbol: FIO4DIR3
   Definitions
      At line 197 in file LPC23xx.inc
   Uses
      None
Comment: FIO4DIR3 unused
FIO4DIRL 3FFFC080

Symbol: FIO4DIRL
   Definitions
      At line 203 in file LPC23xx.inc
   Uses
      None
Comment: FIO4DIRL unused
FIO4DIRU 3FFFC082

Symbol: FIO4DIRU
   Definitions
      At line 209 in file LPC23xx.inc
   Uses
      None
Comment: FIO4DIRU unused
FIO4MASK 3FFFC090

Symbol: FIO4MASK
   Definitions
      At line 169 in file LPC23xx.inc
   Uses
      None
Comment: FIO4MASK unused
FIO4MASK0 3FFFC090

Symbol: FIO4MASK0
   Definitions
      At line 215 in file LPC23xx.inc
   Uses
      None
Comment: FIO4MASK0 unused
FIO4MASK1 3FFFC091

Symbol: FIO4MASK1
   Definitions
      At line 221 in file LPC23xx.inc
   Uses
      None
Comment: FIO4MASK1 unused
FIO4MASK2 3FFFC092

Symbol: FIO4MASK2
   Definitions
      At line 227 in file LPC23xx.inc
   Uses
      None



ARM Macro Assembler    Page 48 Alphabetic symbol ordering
Absolute symbols

Comment: FIO4MASK2 unused
FIO4MASK3 3FFFC093

Symbol: FIO4MASK3
   Definitions
      At line 233 in file LPC23xx.inc
   Uses
      None
Comment: FIO4MASK3 unused
FIO4MASKL 3FFFC090

Symbol: FIO4MASKL
   Definitions
      At line 239 in file LPC23xx.inc
   Uses
      None
Comment: FIO4MASKL unused
FIO4MASKU 3FFFC092

Symbol: FIO4MASKU
   Definitions
      At line 245 in file LPC23xx.inc
   Uses
      None
Comment: FIO4MASKU unused
FIO4PIN 3FFFC094

Symbol: FIO4PIN
   Definitions
      At line 170 in file LPC23xx.inc
   Uses
      None
Comment: FIO4PIN unused
FIO4PIN0 3FFFC094

Symbol: FIO4PIN0
   Definitions
      At line 251 in file LPC23xx.inc
   Uses
      None
Comment: FIO4PIN0 unused
FIO4PIN1 3FFFC095

Symbol: FIO4PIN1
   Definitions
      At line 257 in file LPC23xx.inc
   Uses
      None
Comment: FIO4PIN1 unused
FIO4PIN2 3FFFC096

Symbol: FIO4PIN2
   Definitions
      At line 263 in file LPC23xx.inc
   Uses
      None
Comment: FIO4PIN2 unused
FIO4PIN3 3FFFC097




ARM Macro Assembler    Page 49 Alphabetic symbol ordering
Absolute symbols

Symbol: FIO4PIN3
   Definitions
      At line 269 in file LPC23xx.inc
   Uses
      None
Comment: FIO4PIN3 unused
FIO4PINL 3FFFC094

Symbol: FIO4PINL
   Definitions
      At line 275 in file LPC23xx.inc
   Uses
      None
Comment: FIO4PINL unused
FIO4PINU 3FFFC096

Symbol: FIO4PINU
   Definitions
      At line 281 in file LPC23xx.inc
   Uses
      None
Comment: FIO4PINU unused
FIO4SET 3FFFC098

Symbol: FIO4SET
   Definitions
      At line 171 in file LPC23xx.inc
   Uses
      None
Comment: FIO4SET unused
FIO4SET0 3FFFC098

Symbol: FIO4SET0
   Definitions
      At line 287 in file LPC23xx.inc
   Uses
      None
Comment: FIO4SET0 unused
FIO4SET1 3FFFC099

Symbol: FIO4SET1
   Definitions
      At line 293 in file LPC23xx.inc
   Uses
      None
Comment: FIO4SET1 unused
FIO4SET2 3FFFC09A

Symbol: FIO4SET2
   Definitions
      At line 299 in file LPC23xx.inc
   Uses
      None
Comment: FIO4SET2 unused
FIO4SET3 3FFFC09B

Symbol: FIO4SET3
   Definitions
      At line 305 in file LPC23xx.inc



ARM Macro Assembler    Page 50 Alphabetic symbol ordering
Absolute symbols

   Uses
      None
Comment: FIO4SET3 unused
FIO4SETL 3FFFC098

Symbol: FIO4SETL
   Definitions
      At line 311 in file LPC23xx.inc
   Uses
      None
Comment: FIO4SETL unused
FIO4SETU 3FFFC09A

Symbol: FIO4SETU
   Definitions
      At line 317 in file LPC23xx.inc
   Uses
      None
Comment: FIO4SETU unused
FIO_BASE_ADDR 3FFFC000

Symbol: FIO_BASE_ADDR
   Definitions
      At line 143 in file LPC23xx.inc
   Uses
      At line 144 in file LPC23xx.inc
      At line 145 in file LPC23xx.inc
      At line 146 in file LPC23xx.inc
      At line 147 in file LPC23xx.inc
      At line 148 in file LPC23xx.inc
      At line 150 in file LPC23xx.inc
      At line 151 in file LPC23xx.inc
      At line 152 in file LPC23xx.inc
      At line 153 in file LPC23xx.inc
      At line 154 in file LPC23xx.inc
      At line 156 in file LPC23xx.inc
      At line 157 in file LPC23xx.inc
      At line 158 in file LPC23xx.inc
      At line 159 in file LPC23xx.inc
      At line 160 in file LPC23xx.inc
      At line 162 in file LPC23xx.inc
      At line 163 in file LPC23xx.inc
      At line 164 in file LPC23xx.inc
      At line 165 in file LPC23xx.inc
      At line 166 in file LPC23xx.inc
      At line 168 in file LPC23xx.inc
      At line 169 in file LPC23xx.inc
      At line 170 in file LPC23xx.inc
      At line 171 in file LPC23xx.inc
      At line 172 in file LPC23xx.inc
      At line 175 in file LPC23xx.inc
      At line 176 in file LPC23xx.inc
      At line 177 in file LPC23xx.inc
      At line 178 in file LPC23xx.inc
      At line 179 in file LPC23xx.inc
      At line 181 in file LPC23xx.inc
      At line 182 in file LPC23xx.inc
      At line 183 in file LPC23xx.inc
      At line 184 in file LPC23xx.inc



ARM Macro Assembler    Page 51 Alphabetic symbol ordering
Absolute symbols

      At line 185 in file LPC23xx.inc
      At line 187 in file LPC23xx.inc
      At line 188 in file LPC23xx.inc
      At line 189 in file LPC23xx.inc
      At line 190 in file LPC23xx.inc
      At line 191 in file LPC23xx.inc
      At line 193 in file LPC23xx.inc
      At line 194 in file LPC23xx.inc
      At line 195 in file LPC23xx.inc
      At line 196 in file LPC23xx.inc
      At line 197 in file LPC23xx.inc
      At line 199 in file LPC23xx.inc
      At line 200 in file LPC23xx.inc
      At line 201 in file LPC23xx.inc
      At line 202 in file LPC23xx.inc
      At line 203 in file LPC23xx.inc
      At line 205 in file LPC23xx.inc
      At line 206 in file LPC23xx.inc
      At line 207 in file LPC23xx.inc
      At line 208 in file LPC23xx.inc
      At line 209 in file LPC23xx.inc
      At line 211 in file LPC23xx.inc
      At line 212 in file LPC23xx.inc
      At line 213 in file LPC23xx.inc
      At line 214 in file LPC23xx.inc
      At line 215 in file LPC23xx.inc
      At line 217 in file LPC23xx.inc
      At line 218 in file LPC23xx.inc
      At line 219 in file LPC23xx.inc
      At line 220 in file LPC23xx.inc
      At line 221 in file LPC23xx.inc
      At line 223 in file LPC23xx.inc
      At line 224 in file LPC23xx.inc
      At line 225 in file LPC23xx.inc
      At line 226 in file LPC23xx.inc
      At line 227 in file LPC23xx.inc
      At line 229 in file LPC23xx.inc
      At line 230 in file LPC23xx.inc
      At line 231 in file LPC23xx.inc
      At line 232 in file LPC23xx.inc
      At line 233 in file LPC23xx.inc
      At line 235 in file LPC23xx.inc
      At line 236 in file LPC23xx.inc
      At line 237 in file LPC23xx.inc
      At line 238 in file LPC23xx.inc
      At line 239 in file LPC23xx.inc
      At line 241 in file LPC23xx.inc
      At line 242 in file LPC23xx.inc
      At line 243 in file LPC23xx.inc
      At line 244 in file LPC23xx.inc
      At line 245 in file LPC23xx.inc
      At line 247 in file LPC23xx.inc
      At line 248 in file LPC23xx.inc
      At line 249 in file LPC23xx.inc
      At line 250 in file LPC23xx.inc
      At line 251 in file LPC23xx.inc
      At line 253 in file LPC23xx.inc
      At line 254 in file LPC23xx.inc
      At line 255 in file LPC23xx.inc



ARM Macro Assembler    Page 52 Alphabetic symbol ordering
Absolute symbols

      At line 256 in file LPC23xx.inc
      At line 257 in file LPC23xx.inc
      At line 259 in file LPC23xx.inc
      At line 260 in file LPC23xx.inc
      At line 261 in file LPC23xx.inc
      At line 262 in file LPC23xx.inc
      At line 263 in file LPC23xx.inc
      At line 265 in file LPC23xx.inc
      At line 266 in file LPC23xx.inc
      At line 267 in file LPC23xx.inc
      At line 268 in file LPC23xx.inc
      At line 269 in file LPC23xx.inc
      At line 271 in file LPC23xx.inc
      At line 272 in file LPC23xx.inc
      At line 273 in file LPC23xx.inc
      At line 274 in file LPC23xx.inc
      At line 275 in file LPC23xx.inc
      At line 277 in file LPC23xx.inc
      At line 278 in file LPC23xx.inc
      At line 279 in file LPC23xx.inc
      At line 280 in file LPC23xx.inc
      At line 281 in file LPC23xx.inc
      At line 283 in file LPC23xx.inc
      At line 284 in file LPC23xx.inc
      At line 285 in file LPC23xx.inc
      At line 286 in file LPC23xx.inc
      At line 287 in file LPC23xx.inc
      At line 289 in file LPC23xx.inc
      At line 290 in file LPC23xx.inc
      At line 291 in file LPC23xx.inc
      At line 292 in file LPC23xx.inc
      At line 293 in file LPC23xx.inc
      At line 295 in file LPC23xx.inc
      At line 296 in file LPC23xx.inc
      At line 297 in file LPC23xx.inc
      At line 298 in file LPC23xx.inc
      At line 299 in file LPC23xx.inc
      At line 301 in file LPC23xx.inc
      At line 302 in file LPC23xx.inc
      At line 303 in file LPC23xx.inc
      At line 304 in file LPC23xx.inc
      At line 305 in file LPC23xx.inc
      At line 307 in file LPC23xx.inc
      At line 308 in file LPC23xx.inc
      At line 309 in file LPC23xx.inc
      At line 310 in file LPC23xx.inc
      At line 311 in file LPC23xx.inc
      At line 313 in file LPC23xx.inc
      At line 314 in file LPC23xx.inc
      At line 315 in file LPC23xx.inc
      At line 316 in file LPC23xx.inc
      At line 317 in file LPC23xx.inc
      At line 319 in file LPC23xx.inc
      At line 320 in file LPC23xx.inc
      At line 321 in file LPC23xx.inc
      At line 322 in file LPC23xx.inc
      At line 323 in file LPC23xx.inc
      At line 325 in file LPC23xx.inc
      At line 326 in file LPC23xx.inc



ARM Macro Assembler    Page 53 Alphabetic symbol ordering
Absolute symbols

      At line 327 in file LPC23xx.inc
      At line 328 in file LPC23xx.inc
      At line 329 in file LPC23xx.inc
      At line 331 in file LPC23xx.inc
      At line 332 in file LPC23xx.inc
      At line 333 in file LPC23xx.inc
      At line 334 in file LPC23xx.inc
      At line 335 in file LPC23xx.inc
      At line 337 in file LPC23xx.inc
      At line 338 in file LPC23xx.inc
      At line 339 in file LPC23xx.inc
      At line 340 in file LPC23xx.inc
      At line 341 in file LPC23xx.inc
      At line 343 in file LPC23xx.inc
      At line 344 in file LPC23xx.inc
      At line 345 in file LPC23xx.inc
      At line 346 in file LPC23xx.inc
      At line 347 in file LPC23xx.inc
      At line 349 in file LPC23xx.inc
      At line 350 in file LPC23xx.inc
      At line 351 in file LPC23xx.inc
      At line 352 in file LPC23xx.inc
      At line 353 in file LPC23xx.inc

GPDMA_CH0_CFG FFE04110

Symbol: GPDMA_CH0_CFG
   Definitions
      At line 937 in file LPC23xx.inc
   Uses
      None
Comment: GPDMA_CH0_CFG unused
GPDMA_CH0_CTRL FFE0410C

Symbol: GPDMA_CH0_CTRL
   Definitions
      At line 936 in file LPC23xx.inc
   Uses
      None
Comment: GPDMA_CH0_CTRL unused
GPDMA_CH0_DEST FFE04104

Symbol: GPDMA_CH0_DEST
   Definitions
      At line 934 in file LPC23xx.inc
   Uses
      None
Comment: GPDMA_CH0_DEST unused
GPDMA_CH0_LLI FFE04108

Symbol: GPDMA_CH0_LLI
   Definitions
      At line 935 in file LPC23xx.inc
   Uses
      None
Comment: GPDMA_CH0_LLI unused
GPDMA_CH0_SRC FFE04100

Symbol: GPDMA_CH0_SRC



ARM Macro Assembler    Page 54 Alphabetic symbol ordering
Absolute symbols

   Definitions
      At line 933 in file LPC23xx.inc
   Uses
      None
Comment: GPDMA_CH0_SRC unused
GPDMA_CH1_CFG FFE04130

Symbol: GPDMA_CH1_CFG
   Definitions
      At line 944 in file LPC23xx.inc
   Uses
      None
Comment: GPDMA_CH1_CFG unused
GPDMA_CH1_CTRL FFE0412C

Symbol: GPDMA_CH1_CTRL
   Definitions
      At line 943 in file LPC23xx.inc
   Uses
      None
Comment: GPDMA_CH1_CTRL unused
GPDMA_CH1_DEST FFE04124

Symbol: GPDMA_CH1_DEST
   Definitions
      At line 941 in file LPC23xx.inc
   Uses
      None
Comment: GPDMA_CH1_DEST unused
GPDMA_CH1_LLI FFE04128

Symbol: GPDMA_CH1_LLI
   Definitions
      At line 942 in file LPC23xx.inc
   Uses
      None
Comment: GPDMA_CH1_LLI unused
GPDMA_CH1_SRC FFE04120

Symbol: GPDMA_CH1_SRC
   Definitions
      At line 940 in file LPC23xx.inc
   Uses
      None
Comment: GPDMA_CH1_SRC unused
GPDMA_CONFIG FFE04030

Symbol: GPDMA_CONFIG
   Definitions
      At line 929 in file LPC23xx.inc
   Uses
      None
Comment: GPDMA_CONFIG unused
GPDMA_ENABLED_CHNS FFE0401C

Symbol: GPDMA_ENABLED_CHNS
   Definitions
      At line 924 in file LPC23xx.inc
   Uses



ARM Macro Assembler    Page 55 Alphabetic symbol ordering
Absolute symbols

      None
Comment: GPDMA_ENABLED_CHNS unused
GPDMA_INT_ERR_CLR FFE04010

Symbol: GPDMA_INT_ERR_CLR
   Definitions
      At line 921 in file LPC23xx.inc
   Uses
      None
Comment: GPDMA_INT_ERR_CLR unused
GPDMA_INT_ERR_STAT FFE0400C

Symbol: GPDMA_INT_ERR_STAT
   Definitions
      At line 920 in file LPC23xx.inc
   Uses
      None
Comment: GPDMA_INT_ERR_STAT unused
GPDMA_INT_STAT FFE04000

Symbol: GPDMA_INT_STAT
   Definitions
      At line 917 in file LPC23xx.inc
   Uses
      None
Comment: GPDMA_INT_STAT unused
GPDMA_INT_TCCLR FFE04008

Symbol: GPDMA_INT_TCCLR
   Definitions
      At line 919 in file LPC23xx.inc
   Uses
      None
Comment: GPDMA_INT_TCCLR unused
GPDMA_INT_TCSTAT FFE04004

Symbol: GPDMA_INT_TCSTAT
   Definitions
      At line 918 in file LPC23xx.inc
   Uses
      None
Comment: GPDMA_INT_TCSTAT unused
GPDMA_RAW_INT_ERR_STAT FFE04018

Symbol: GPDMA_RAW_INT_ERR_STAT
   Definitions
      At line 923 in file LPC23xx.inc
   Uses
      None
Comment: GPDMA_RAW_INT_ERR_STAT unused
GPDMA_RAW_INT_TCSTAT FFE04014

Symbol: GPDMA_RAW_INT_TCSTAT
   Definitions
      At line 922 in file LPC23xx.inc
   Uses
      None
Comment: GPDMA_RAW_INT_TCSTAT unused
GPDMA_SOFT_BREQ FFE04020



ARM Macro Assembler    Page 56 Alphabetic symbol ordering
Absolute symbols


Symbol: GPDMA_SOFT_BREQ
   Definitions
      At line 925 in file LPC23xx.inc
   Uses
      None
Comment: GPDMA_SOFT_BREQ unused
GPDMA_SOFT_LBREQ FFE04028

Symbol: GPDMA_SOFT_LBREQ
   Definitions
      At line 927 in file LPC23xx.inc
   Uses
      None
Comment: GPDMA_SOFT_LBREQ unused
GPDMA_SOFT_LSREQ FFE0402C

Symbol: GPDMA_SOFT_LSREQ
   Definitions
      At line 928 in file LPC23xx.inc
   Uses
      None
Comment: GPDMA_SOFT_LSREQ unused
GPDMA_SOFT_SREQ FFE04024

Symbol: GPDMA_SOFT_SREQ
   Definitions
      At line 926 in file LPC23xx.inc
   Uses
      None
Comment: GPDMA_SOFT_SREQ unused
GPDMA_SYNC FFE04034

Symbol: GPDMA_SYNC
   Definitions
      At line 930 in file LPC23xx.inc
   Uses
      None
Comment: GPDMA_SYNC unused
GPIO_BASE_ADDR E0028000

Symbol: GPIO_BASE_ADDR
   Definitions
      At line 114 in file LPC23xx.inc
   Uses
      At line 115 in file LPC23xx.inc
      At line 116 in file LPC23xx.inc
      At line 117 in file LPC23xx.inc
      At line 118 in file LPC23xx.inc
      At line 119 in file LPC23xx.inc
      At line 120 in file LPC23xx.inc
      At line 121 in file LPC23xx.inc
      At line 122 in file LPC23xx.inc
      At line 125 in file LPC23xx.inc
      At line 126 in file LPC23xx.inc
      At line 127 in file LPC23xx.inc
      At line 128 in file LPC23xx.inc
      At line 129 in file LPC23xx.inc
      At line 131 in file LPC23xx.inc



ARM Macro Assembler    Page 57 Alphabetic symbol ordering
Absolute symbols

      At line 132 in file LPC23xx.inc
      At line 133 in file LPC23xx.inc
      At line 134 in file LPC23xx.inc
      At line 135 in file LPC23xx.inc
      At line 137 in file LPC23xx.inc

HC_BULK_CUR_ED FFE0C02C

Symbol: HC_BULK_CUR_ED
   Definitions
      At line 1017 in file LPC23xx.inc
   Uses
      None
Comment: HC_BULK_CUR_ED unused
HC_BULK_HEAD_ED FFE0C028

Symbol: HC_BULK_HEAD_ED
   Definitions
      At line 1016 in file LPC23xx.inc
   Uses
      None
Comment: HC_BULK_HEAD_ED unused
HC_CMD_STAT FFE0C008

Symbol: HC_CMD_STAT
   Definitions
      At line 1008 in file LPC23xx.inc
   Uses
      None
Comment: HC_CMD_STAT unused
HC_CONTROL FFE0C004

Symbol: HC_CONTROL
   Definitions
      At line 1007 in file LPC23xx.inc
   Uses
      None
Comment: HC_CONTROL unused
HC_CTRL_CUR_ED FFE0C024

Symbol: HC_CTRL_CUR_ED
   Definitions
      At line 1015 in file LPC23xx.inc
   Uses
      None
Comment: HC_CTRL_CUR_ED unused
HC_CTRL_HEAD_ED FFE0C020

Symbol: HC_CTRL_HEAD_ED
   Definitions
      At line 1014 in file LPC23xx.inc
   Uses
      None
Comment: HC_CTRL_HEAD_ED unused
HC_DONE_HEAD FFE0C030

Symbol: HC_DONE_HEAD
   Definitions
      At line 1018 in file LPC23xx.inc



ARM Macro Assembler    Page 58 Alphabetic symbol ordering
Absolute symbols

   Uses
      None
Comment: HC_DONE_HEAD unused
HC_FM_INTERVAL FFE0C034

Symbol: HC_FM_INTERVAL
   Definitions
      At line 1019 in file LPC23xx.inc
   Uses
      None
Comment: HC_FM_INTERVAL unused
HC_FM_NUMBER FFE0C03C

Symbol: HC_FM_NUMBER
   Definitions
      At line 1021 in file LPC23xx.inc
   Uses
      None
Comment: HC_FM_NUMBER unused
HC_FM_REMAINING FFE0C038

Symbol: HC_FM_REMAINING
   Definitions
      At line 1020 in file LPC23xx.inc
   Uses
      None
Comment: HC_FM_REMAINING unused
HC_HCCA FFE0C018

Symbol: HC_HCCA
   Definitions
      At line 1012 in file LPC23xx.inc
   Uses
      None
Comment: HC_HCCA unused
HC_INT_DIS FFE0C014

Symbol: HC_INT_DIS
   Definitions
      At line 1011 in file LPC23xx.inc
   Uses
      None
Comment: HC_INT_DIS unused
HC_INT_EN FFE0C010

Symbol: HC_INT_EN
   Definitions
      At line 1010 in file LPC23xx.inc
   Uses
      None
Comment: HC_INT_EN unused
HC_INT_STAT FFE0C00C

Symbol: HC_INT_STAT
   Definitions
      At line 1009 in file LPC23xx.inc
   Uses
      None
Comment: HC_INT_STAT unused



ARM Macro Assembler    Page 59 Alphabetic symbol ordering
Absolute symbols

HC_LS_THRHLD FFE0C044

Symbol: HC_LS_THRHLD
   Definitions
      At line 1023 in file LPC23xx.inc
   Uses
      None
Comment: HC_LS_THRHLD unused
HC_PERIOD_CUR_ED FFE0C01C

Symbol: HC_PERIOD_CUR_ED
   Definitions
      At line 1013 in file LPC23xx.inc
   Uses
      None
Comment: HC_PERIOD_CUR_ED unused
HC_PERIOD_START FFE0C040

Symbol: HC_PERIOD_START
   Definitions
      At line 1022 in file LPC23xx.inc
   Uses
      None
Comment: HC_PERIOD_START unused
HC_REVISION FFE0C000

Symbol: HC_REVISION
   Definitions
      At line 1006 in file LPC23xx.inc
   Uses
      None
Comment: HC_REVISION unused
HC_RH_DESCA FFE0C048

Symbol: HC_RH_DESCA
   Definitions
      At line 1024 in file LPC23xx.inc
   Uses
      None
Comment: HC_RH_DESCA unused
HC_RH_DESCB FFE0C04C

Symbol: HC_RH_DESCB
   Definitions
      At line 1025 in file LPC23xx.inc
   Uses
      None
Comment: HC_RH_DESCB unused
HC_RH_PORT_STAT1 FFE0C054

Symbol: HC_RH_PORT_STAT1
   Definitions
      At line 1027 in file LPC23xx.inc
   Uses
      None
Comment: HC_RH_PORT_STAT1 unused
HC_RH_PORT_STAT2 FFE0C058

Symbol: HC_RH_PORT_STAT2



ARM Macro Assembler    Page 60 Alphabetic symbol ordering
Absolute symbols

   Definitions
      At line 1028 in file LPC23xx.inc
   Uses
      None
Comment: HC_RH_PORT_STAT2 unused
HC_RH_STAT FFE0C050

Symbol: HC_RH_STAT
   Definitions
      At line 1026 in file LPC23xx.inc
   Uses
      None
Comment: HC_RH_STAT unused
Home 00000002

Symbol: Home
   Definitions
      At line 17 in file PosPeriod_StringDisplay.s
   Uses
      At line 26 in file PosPeriod_StringDisplay.s
Comment: Home used once
I20ADR E001C00C

Symbol: I20ADR
   Definitions
      At line 687 in file LPC23xx.inc
   Uses
      None
Comment: I20ADR unused
I20CONCLR E001C018

Symbol: I20CONCLR
   Definitions
      At line 690 in file LPC23xx.inc
   Uses
      None
Comment: I20CONCLR unused
I20CONSET E001C000

Symbol: I20CONSET
   Definitions
      At line 684 in file LPC23xx.inc
   Uses
      None
Comment: I20CONSET unused
I20DAT E001C008

Symbol: I20DAT
   Definitions
      At line 686 in file LPC23xx.inc
   Uses
      None
Comment: I20DAT unused
I20SCLH E001C010

Symbol: I20SCLH
   Definitions
      At line 688 in file LPC23xx.inc
   Uses



ARM Macro Assembler    Page 61 Alphabetic symbol ordering
Absolute symbols

      None
Comment: I20SCLH unused
I20SCLL E001C014

Symbol: I20SCLL
   Definitions
      At line 689 in file LPC23xx.inc
   Uses
      None
Comment: I20SCLL unused
I20STAT E001C004

Symbol: I20STAT
   Definitions
      At line 685 in file LPC23xx.inc
   Uses
      None
Comment: I20STAT unused
I21ADR E005C00C

Symbol: I21ADR
   Definitions
      At line 697 in file LPC23xx.inc
   Uses
      None
Comment: I21ADR unused
I21CONCLR E005C018

Symbol: I21CONCLR
   Definitions
      At line 700 in file LPC23xx.inc
   Uses
      None
Comment: I21CONCLR unused
I21CONSET E005C000

Symbol: I21CONSET
   Definitions
      At line 694 in file LPC23xx.inc
   Uses
      None
Comment: I21CONSET unused
I21DAT E005C008

Symbol: I21DAT
   Definitions
      At line 696 in file LPC23xx.inc
   Uses
      None
Comment: I21DAT unused
I21SCLH E005C010

Symbol: I21SCLH
   Definitions
      At line 698 in file LPC23xx.inc
   Uses
      None
Comment: I21SCLH unused
I21SCLL E005C014



ARM Macro Assembler    Page 62 Alphabetic symbol ordering
Absolute symbols


Symbol: I21SCLL
   Definitions
      At line 699 in file LPC23xx.inc
   Uses
      None
Comment: I21SCLL unused
I21STAT E005C004

Symbol: I21STAT
   Definitions
      At line 695 in file LPC23xx.inc
   Uses
      None
Comment: I21STAT unused
I22ADR E008000C

Symbol: I22ADR
   Definitions
      At line 707 in file LPC23xx.inc
   Uses
      None
Comment: I22ADR unused
I22CONCLR E0080018

Symbol: I22CONCLR
   Definitions
      At line 710 in file LPC23xx.inc
   Uses
      None
Comment: I22CONCLR unused
I22CONSET E0080000

Symbol: I22CONSET
   Definitions
      At line 704 in file LPC23xx.inc
   Uses
      None
Comment: I22CONSET unused
I22DAT E0080008

Symbol: I22DAT
   Definitions
      At line 706 in file LPC23xx.inc
   Uses
      None
Comment: I22DAT unused
I22SCLH E0080010

Symbol: I22SCLH
   Definitions
      At line 708 in file LPC23xx.inc
   Uses
      None
Comment: I22SCLH unused
I22SCLL E0080014

Symbol: I22SCLL
   Definitions



ARM Macro Assembler    Page 63 Alphabetic symbol ordering
Absolute symbols

      At line 709 in file LPC23xx.inc
   Uses
      None
Comment: I22SCLL unused
I22STAT E0080004

Symbol: I22STAT
   Definitions
      At line 705 in file LPC23xx.inc
   Uses
      None
Comment: I22STAT unused
I2C0_BASE_ADDR E001C000

Symbol: I2C0_BASE_ADDR
   Definitions
      At line 683 in file LPC23xx.inc
   Uses
      At line 684 in file LPC23xx.inc
      At line 685 in file LPC23xx.inc
      At line 686 in file LPC23xx.inc
      At line 687 in file LPC23xx.inc
      At line 688 in file LPC23xx.inc
      At line 689 in file LPC23xx.inc
      At line 690 in file LPC23xx.inc

I2C1_BASE_ADDR E005C000

Symbol: I2C1_BASE_ADDR
   Definitions
      At line 693 in file LPC23xx.inc
   Uses
      At line 694 in file LPC23xx.inc
      At line 695 in file LPC23xx.inc
      At line 696 in file LPC23xx.inc
      At line 697 in file LPC23xx.inc
      At line 698 in file LPC23xx.inc
      At line 699 in file LPC23xx.inc
      At line 700 in file LPC23xx.inc

I2C2_BASE_ADDR E0080000

Symbol: I2C2_BASE_ADDR
   Definitions
      At line 703 in file LPC23xx.inc
   Uses
      At line 704 in file LPC23xx.inc
      At line 705 in file LPC23xx.inc
      At line 706 in file LPC23xx.inc
      At line 707 in file LPC23xx.inc
      At line 708 in file LPC23xx.inc
      At line 709 in file LPC23xx.inc
      At line 710 in file LPC23xx.inc

I2S_BASE_ADDR E0088000

Symbol: I2S_BASE_ADDR
   Definitions
      At line 902 in file LPC23xx.inc



ARM Macro Assembler    Page 64 Alphabetic symbol ordering
Absolute symbols

   Uses
      At line 903 in file LPC23xx.inc
      At line 904 in file LPC23xx.inc
      At line 905 in file LPC23xx.inc
      At line 906 in file LPC23xx.inc
      At line 907 in file LPC23xx.inc
      At line 908 in file LPC23xx.inc
      At line 909 in file LPC23xx.inc
      At line 910 in file LPC23xx.inc
      At line 911 in file LPC23xx.inc
      At line 912 in file LPC23xx.inc

I2S_DAI E0088004

Symbol: I2S_DAI
   Definitions
      At line 904 in file LPC23xx.inc
   Uses
      None
Comment: I2S_DAI unused
I2S_DAO E0088000

Symbol: I2S_DAO
   Definitions
      At line 903 in file LPC23xx.inc
   Uses
      None
Comment: I2S_DAO unused
I2S_DMA1 E0088014

Symbol: I2S_DMA1
   Definitions
      At line 908 in file LPC23xx.inc
   Uses
      None
Comment: I2S_DMA1 unused
I2S_DMA2 E0088018

Symbol: I2S_DMA2
   Definitions
      At line 909 in file LPC23xx.inc
   Uses
      None
Comment: I2S_DMA2 unused
I2S_IRQ E008801C

Symbol: I2S_IRQ
   Definitions
      At line 910 in file LPC23xx.inc
   Uses
      None
Comment: I2S_IRQ unused
I2S_RXRATE E0088024

Symbol: I2S_RXRATE
   Definitions
      At line 912 in file LPC23xx.inc
   Uses
      None



ARM Macro Assembler    Page 65 Alphabetic symbol ordering
Absolute symbols

Comment: I2S_RXRATE unused
I2S_RX_FIFO E008800C

Symbol: I2S_RX_FIFO
   Definitions
      At line 906 in file LPC23xx.inc
   Uses
      None
Comment: I2S_RX_FIFO unused
I2S_STATE E0088010

Symbol: I2S_STATE
   Definitions
      At line 907 in file LPC23xx.inc
   Uses
      None
Comment: I2S_STATE unused
I2S_TXRATE E0088020

Symbol: I2S_TXRATE
   Definitions
      At line 911 in file LPC23xx.inc
   Uses
      None
Comment: I2S_TXRATE unused
I2S_TX_FIFO E0088008

Symbol: I2S_TX_FIFO
   Definitions
      At line 905 in file LPC23xx.inc
   Uses
      None
Comment: I2S_TX_FIFO unused
INTWAKE E01FC144

Symbol: INTWAKE
   Definitions
      At line 386 in file LPC23xx.inc
   Uses
      None
Comment: INTWAKE unused
IO0_INT_CLR E002808C

Symbol: IO0_INT_CLR
   Definitions
      At line 129 in file LPC23xx.inc
   Uses
      None
Comment: IO0_INT_CLR unused
IO0_INT_EN_F E0028094

Symbol: IO0_INT_EN_F
   Definitions
      At line 126 in file LPC23xx.inc
   Uses
      None
Comment: IO0_INT_EN_F unused
IO0_INT_EN_R E0028090




ARM Macro Assembler    Page 66 Alphabetic symbol ordering
Absolute symbols

Symbol: IO0_INT_EN_R
   Definitions
      At line 125 in file LPC23xx.inc
   Uses
      None
Comment: IO0_INT_EN_R unused
IO0_INT_STAT_F E0028088

Symbol: IO0_INT_STAT_F
   Definitions
      At line 128 in file LPC23xx.inc
   Uses
      None
Comment: IO0_INT_STAT_F unused
IO0_INT_STAT_R E0028084

Symbol: IO0_INT_STAT_R
   Definitions
      At line 127 in file LPC23xx.inc
   Uses
      None
Comment: IO0_INT_STAT_R unused
IO2_INT_CLR E00280AC

Symbol: IO2_INT_CLR
   Definitions
      At line 135 in file LPC23xx.inc
   Uses
      None
Comment: IO2_INT_CLR unused
IO2_INT_EN_F E00280B4

Symbol: IO2_INT_EN_F
   Definitions
      At line 132 in file LPC23xx.inc
   Uses
      None
Comment: IO2_INT_EN_F unused
IO2_INT_EN_R E00280B0

Symbol: IO2_INT_EN_R
   Definitions
      At line 131 in file LPC23xx.inc
   Uses
      None
Comment: IO2_INT_EN_R unused
IO2_INT_STAT_F E00280A8

Symbol: IO2_INT_STAT_F
   Definitions
      At line 134 in file LPC23xx.inc
   Uses
      None
Comment: IO2_INT_STAT_F unused
IO2_INT_STAT_R E00280A4

Symbol: IO2_INT_STAT_R
   Definitions
      At line 133 in file LPC23xx.inc



ARM Macro Assembler    Page 67 Alphabetic symbol ordering
Absolute symbols

   Uses
      None
Comment: IO2_INT_STAT_R unused
IOCLR0 E002800C

Symbol: IOCLR0
   Definitions
      At line 118 in file LPC23xx.inc
   Uses
      None
Comment: IOCLR0 unused
IOCLR1 E002801C

Symbol: IOCLR1
   Definitions
      At line 122 in file LPC23xx.inc
   Uses
      None
Comment: IOCLR1 unused
IODIR0 E0028008

Symbol: IODIR0
   Definitions
      At line 117 in file LPC23xx.inc
   Uses
      None
Comment: IODIR0 unused
IODIR1 E0028018

Symbol: IODIR1
   Definitions
      At line 121 in file LPC23xx.inc
   Uses
      None
Comment: IODIR1 unused
IOPIN0 E0028000

Symbol: IOPIN0
   Definitions
      At line 115 in file LPC23xx.inc
   Uses
      None
Comment: IOPIN0 unused
IOPIN1 E0028010

Symbol: IOPIN1
   Definitions
      At line 119 in file LPC23xx.inc
   Uses
      None
Comment: IOPIN1 unused
IOSET0 E0028004

Symbol: IOSET0
   Definitions
      At line 116 in file LPC23xx.inc
   Uses
      None
Comment: IOSET0 unused



ARM Macro Assembler    Page 68 Alphabetic symbol ordering
Absolute symbols

IOSET1 E0028014

Symbol: IOSET1
   Definitions
      At line 120 in file LPC23xx.inc
   Uses
      None
Comment: IOSET1 unused
IO_INT_STAT E0028080

Symbol: IO_INT_STAT
   Definitions
      At line 137 in file LPC23xx.inc
   Uses
      None
Comment: IO_INT_STAT unused
MAC_BASE_ADDR FFE00000

Symbol: MAC_BASE_ADDR
   Definitions
      At line 1061 in file LPC23xx.inc
   Uses
      At line 1062 in file LPC23xx.inc
      At line 1063 in file LPC23xx.inc
      At line 1064 in file LPC23xx.inc
      At line 1065 in file LPC23xx.inc
      At line 1066 in file LPC23xx.inc
      At line 1067 in file LPC23xx.inc
      At line 1068 in file LPC23xx.inc
      At line 1069 in file LPC23xx.inc
      At line 1070 in file LPC23xx.inc
      At line 1071 in file LPC23xx.inc
      At line 1072 in file LPC23xx.inc
      At line 1073 in file LPC23xx.inc
      At line 1074 in file LPC23xx.inc
      At line 1075 in file LPC23xx.inc
      At line 1077 in file LPC23xx.inc
      At line 1078 in file LPC23xx.inc
      At line 1079 in file LPC23xx.inc
      At line 1081 in file LPC23xx.inc
      At line 1082 in file LPC23xx.inc
      At line 1083 in file LPC23xx.inc
      At line 1084 in file LPC23xx.inc
      At line 1085 in file LPC23xx.inc
      At line 1086 in file LPC23xx.inc
      At line 1087 in file LPC23xx.inc
      At line 1088 in file LPC23xx.inc
      At line 1089 in file LPC23xx.inc
      At line 1090 in file LPC23xx.inc
      At line 1091 in file LPC23xx.inc
      At line 1092 in file LPC23xx.inc
      At line 1094 in file LPC23xx.inc
      At line 1095 in file LPC23xx.inc
      At line 1096 in file LPC23xx.inc
      At line 1098 in file LPC23xx.inc
      At line 1099 in file LPC23xx.inc
      At line 1101 in file LPC23xx.inc
      At line 1102 in file LPC23xx.inc
      At line 1103 in file LPC23xx.inc



ARM Macro Assembler    Page 69 Alphabetic symbol ordering
Absolute symbols

      At line 1105 in file LPC23xx.inc
      At line 1106 in file LPC23xx.inc
      At line 1108 in file LPC23xx.inc
      At line 1109 in file LPC23xx.inc
      At line 1110 in file LPC23xx.inc
      At line 1111 in file LPC23xx.inc
      At line 1113 in file LPC23xx.inc
      At line 1114 in file LPC23xx.inc

MAC_CLRT FFE00010

Symbol: MAC_CLRT
   Definitions
      At line 1066 in file LPC23xx.inc
   Uses
      None
Comment: MAC_CLRT unused
MAC_COMMAND FFE00100

Symbol: MAC_COMMAND
   Definitions
      At line 1081 in file LPC23xx.inc
   Uses
      None
Comment: MAC_COMMAND unused
MAC_FLOWCONTROLCNT FFE00170

Symbol: MAC_FLOWCONTROLCNT
   Definitions
      At line 1098 in file LPC23xx.inc
   Uses
      None
Comment: MAC_FLOWCONTROLCNT unused
MAC_FLOWCONTROLSTS FFE00174

Symbol: MAC_FLOWCONTROLSTS
   Definitions
      At line 1099 in file LPC23xx.inc
   Uses
      None
Comment: MAC_FLOWCONTROLSTS unused
MAC_HASHFILTERH FFE00214

Symbol: MAC_HASHFILTERH
   Definitions
      At line 1106 in file LPC23xx.inc
   Uses
      None
Comment: MAC_HASHFILTERH unused
MAC_HASHFILTERL FFE00210

Symbol: MAC_HASHFILTERL
   Definitions
      At line 1105 in file LPC23xx.inc
   Uses
      None
Comment: MAC_HASHFILTERL unused
MAC_INTCLEAR FFE00FE8




ARM Macro Assembler    Page 70 Alphabetic symbol ordering
Absolute symbols

Symbol: MAC_INTCLEAR
   Definitions
      At line 1110 in file LPC23xx.inc
   Uses
      None
Comment: MAC_INTCLEAR unused
MAC_INTENABLE FFE00FE4

Symbol: MAC_INTENABLE
   Definitions
      At line 1109 in file LPC23xx.inc
   Uses
      None
Comment: MAC_INTENABLE unused
MAC_INTSET FFE00FEC

Symbol: MAC_INTSET
   Definitions
      At line 1111 in file LPC23xx.inc
   Uses
      None
Comment: MAC_INTSET unused
MAC_INTSTATUS FFE00FE0

Symbol: MAC_INTSTATUS
   Definitions
      At line 1108 in file LPC23xx.inc
   Uses
      None
Comment: MAC_INTSTATUS unused
MAC_IPGR FFE0000C

Symbol: MAC_IPGR
   Definitions
      At line 1065 in file LPC23xx.inc
   Uses
      None
Comment: MAC_IPGR unused
MAC_IPGT FFE00008

Symbol: MAC_IPGT
   Definitions
      At line 1064 in file LPC23xx.inc
   Uses
      None
Comment: MAC_IPGT unused
MAC_MAC1 FFE00000

Symbol: MAC_MAC1
   Definitions
      At line 1062 in file LPC23xx.inc
   Uses
      None
Comment: MAC_MAC1 unused
MAC_MAC2 FFE00004

Symbol: MAC_MAC2
   Definitions
      At line 1063 in file LPC23xx.inc



ARM Macro Assembler    Page 71 Alphabetic symbol ordering
Absolute symbols

   Uses
      None
Comment: MAC_MAC2 unused
MAC_MADR FFE00028

Symbol: MAC_MADR
   Definitions
      At line 1072 in file LPC23xx.inc
   Uses
      None
Comment: MAC_MADR unused
MAC_MAXF FFE00014

Symbol: MAC_MAXF
   Definitions
      At line 1067 in file LPC23xx.inc
   Uses
      None
Comment: MAC_MAXF unused
MAC_MCFG FFE00020

Symbol: MAC_MCFG
   Definitions
      At line 1070 in file LPC23xx.inc
   Uses
      None
Comment: MAC_MCFG unused
MAC_MCMD FFE00024

Symbol: MAC_MCMD
   Definitions
      At line 1071 in file LPC23xx.inc
   Uses
      None
Comment: MAC_MCMD unused
MAC_MIND FFE00034

Symbol: MAC_MIND
   Definitions
      At line 1075 in file LPC23xx.inc
   Uses
      None
Comment: MAC_MIND unused
MAC_MODULEID FFE00FFC

Symbol: MAC_MODULEID
   Definitions
      At line 1114 in file LPC23xx.inc
   Uses
      None
Comment: MAC_MODULEID unused
MAC_MRDD FFE00030

Symbol: MAC_MRDD
   Definitions
      At line 1074 in file LPC23xx.inc
   Uses
      None
Comment: MAC_MRDD unused



ARM Macro Assembler    Page 72 Alphabetic symbol ordering
Absolute symbols

MAC_MWTD FFE0002C

Symbol: MAC_MWTD
   Definitions
      At line 1073 in file LPC23xx.inc
   Uses
      None
Comment: MAC_MWTD unused
MAC_POWERDOWN FFE00FF4

Symbol: MAC_POWERDOWN
   Definitions
      At line 1113 in file LPC23xx.inc
   Uses
      None
Comment: MAC_POWERDOWN unused
MAC_RSV FFE00160

Symbol: MAC_RSV
   Definitions
      At line 1096 in file LPC23xx.inc
   Uses
      None
Comment: MAC_RSV unused
MAC_RXCONSUMEINDEX FFE00118

Symbol: MAC_RXCONSUMEINDEX
   Definitions
      At line 1087 in file LPC23xx.inc
   Uses
      None
Comment: MAC_RXCONSUMEINDEX unused
MAC_RXDESCRIPTOR FFE00108

Symbol: MAC_RXDESCRIPTOR
   Definitions
      At line 1083 in file LPC23xx.inc
   Uses
      None
Comment: MAC_RXDESCRIPTOR unused
MAC_RXDESCRIPTORNUM FFE00110

Symbol: MAC_RXDESCRIPTORNUM
   Definitions
      At line 1085 in file LPC23xx.inc
   Uses
      None
Comment: MAC_RXDESCRIPTORNUM unused
MAC_RXFILTERCTRL FFE00200

Symbol: MAC_RXFILTERCTRL
   Definitions
      At line 1101 in file LPC23xx.inc
   Uses
      None
Comment: MAC_RXFILTERCTRL unused
MAC_RXFILTERWOLCLR FFE00208

Symbol: MAC_RXFILTERWOLCLR



ARM Macro Assembler    Page 73 Alphabetic symbol ordering
Absolute symbols

   Definitions
      At line 1103 in file LPC23xx.inc
   Uses
      None
Comment: MAC_RXFILTERWOLCLR unused
MAC_RXFILTERWOLSTS FFE00204

Symbol: MAC_RXFILTERWOLSTS
   Definitions
      At line 1102 in file LPC23xx.inc
   Uses
      None
Comment: MAC_RXFILTERWOLSTS unused
MAC_RXPRODUCEINDEX FFE00114

Symbol: MAC_RXPRODUCEINDEX
   Definitions
      At line 1086 in file LPC23xx.inc
   Uses
      None
Comment: MAC_RXPRODUCEINDEX unused
MAC_RXSTATUS FFE0010C

Symbol: MAC_RXSTATUS
   Definitions
      At line 1084 in file LPC23xx.inc
   Uses
      None
Comment: MAC_RXSTATUS unused
MAC_SA0 FFE00040

Symbol: MAC_SA0
   Definitions
      At line 1077 in file LPC23xx.inc
   Uses
      None
Comment: MAC_SA0 unused
MAC_SA1 FFE00044

Symbol: MAC_SA1
   Definitions
      At line 1078 in file LPC23xx.inc
   Uses
      None
Comment: MAC_SA1 unused
MAC_SA2 FFE00048

Symbol: MAC_SA2
   Definitions
      At line 1079 in file LPC23xx.inc
   Uses
      None
Comment: MAC_SA2 unused
MAC_STATUS FFE00104

Symbol: MAC_STATUS
   Definitions
      At line 1082 in file LPC23xx.inc
   Uses



ARM Macro Assembler    Page 74 Alphabetic symbol ordering
Absolute symbols

      None
Comment: MAC_STATUS unused
MAC_SUPP FFE00018

Symbol: MAC_SUPP
   Definitions
      At line 1068 in file LPC23xx.inc
   Uses
      None
Comment: MAC_SUPP unused
MAC_TEST FFE0001C

Symbol: MAC_TEST
   Definitions
      At line 1069 in file LPC23xx.inc
   Uses
      None
Comment: MAC_TEST unused
MAC_TSV0 FFE00158

Symbol: MAC_TSV0
   Definitions
      At line 1094 in file LPC23xx.inc
   Uses
      None
Comment: MAC_TSV0 unused
MAC_TSV1 FFE0015C

Symbol: MAC_TSV1
   Definitions
      At line 1095 in file LPC23xx.inc
   Uses
      None
Comment: MAC_TSV1 unused
MAC_TXCONSUMEINDEX FFE0012C

Symbol: MAC_TXCONSUMEINDEX
   Definitions
      At line 1092 in file LPC23xx.inc
   Uses
      None
Comment: MAC_TXCONSUMEINDEX unused
MAC_TXDESCRIPTOR FFE0011C

Symbol: MAC_TXDESCRIPTOR
   Definitions
      At line 1088 in file LPC23xx.inc
   Uses
      None
Comment: MAC_TXDESCRIPTOR unused
MAC_TXDESCRIPTORNUM FFE00124

Symbol: MAC_TXDESCRIPTORNUM
   Definitions
      At line 1090 in file LPC23xx.inc
   Uses
      None
Comment: MAC_TXDESCRIPTORNUM unused
MAC_TXPRODUCEINDEX FFE00128



ARM Macro Assembler    Page 75 Alphabetic symbol ordering
Absolute symbols


Symbol: MAC_TXPRODUCEINDEX
   Definitions
      At line 1091 in file LPC23xx.inc
   Uses
      None
Comment: MAC_TXPRODUCEINDEX unused
MAC_TXSTATUS FFE00120

Symbol: MAC_TXSTATUS
   Definitions
      At line 1089 in file LPC23xx.inc
   Uses
      None
Comment: MAC_TXSTATUS unused
MAMCR E01FC000

Symbol: MAMCR
   Definitions
      At line 362 in file LPC23xx.inc
   Uses
      None
Comment: MAMCR unused
MAMTIM E01FC004

Symbol: MAMTIM
   Definitions
      At line 363 in file LPC23xx.inc
   Uses
      None
Comment: MAMTIM unused
MAXPACKET_SIZE FFE0C24C

Symbol: MAXPACKET_SIZE
   Definitions
      At line 970 in file LPC23xx.inc
   Uses
      None
Comment: MAXPACKET_SIZE unused
MCI_ARGUMENT E008C008

Symbol: MCI_ARGUMENT
   Definitions
      At line 882 in file LPC23xx.inc
   Uses
      None
Comment: MCI_ARGUMENT unused
MCI_BASE_ADDR E008C000

Symbol: MCI_BASE_ADDR
   Definitions
      At line 879 in file LPC23xx.inc
   Uses
      At line 880 in file LPC23xx.inc
      At line 881 in file LPC23xx.inc
      At line 882 in file LPC23xx.inc
      At line 883 in file LPC23xx.inc
      At line 884 in file LPC23xx.inc
      At line 885 in file LPC23xx.inc



ARM Macro Assembler    Page 76 Alphabetic symbol ordering
Absolute symbols

      At line 886 in file LPC23xx.inc
      At line 887 in file LPC23xx.inc
      At line 888 in file LPC23xx.inc
      At line 889 in file LPC23xx.inc
      At line 890 in file LPC23xx.inc
      At line 891 in file LPC23xx.inc
      At line 892 in file LPC23xx.inc
      At line 893 in file LPC23xx.inc
      At line 894 in file LPC23xx.inc
      At line 895 in file LPC23xx.inc
      At line 896 in file LPC23xx.inc
      At line 897 in file LPC23xx.inc
      At line 898 in file LPC23xx.inc

MCI_CLEAR E008C038

Symbol: MCI_CLEAR
   Definitions
      At line 894 in file LPC23xx.inc
   Uses
      None
Comment: MCI_CLEAR unused
MCI_CLOCK E008C004

Symbol: MCI_CLOCK
   Definitions
      At line 881 in file LPC23xx.inc
   Uses
      None
Comment: MCI_CLOCK unused
MCI_COMMAND E008C00C

Symbol: MCI_COMMAND
   Definitions
      At line 883 in file LPC23xx.inc
   Uses
      None
Comment: MCI_COMMAND unused
MCI_DATA_CNT E008C030

Symbol: MCI_DATA_CNT
   Definitions
      At line 892 in file LPC23xx.inc
   Uses
      None
Comment: MCI_DATA_CNT unused
MCI_DATA_CTRL E008C02C

Symbol: MCI_DATA_CTRL
   Definitions
      At line 891 in file LPC23xx.inc
   Uses
      None
Comment: MCI_DATA_CTRL unused
MCI_DATA_LEN E008C028

Symbol: MCI_DATA_LEN
   Definitions
      At line 890 in file LPC23xx.inc



ARM Macro Assembler    Page 77 Alphabetic symbol ordering
Absolute symbols

   Uses
      None
Comment: MCI_DATA_LEN unused
MCI_DATA_TMR E008C024

Symbol: MCI_DATA_TMR
   Definitions
      At line 889 in file LPC23xx.inc
   Uses
      None
Comment: MCI_DATA_TMR unused
MCI_FIFO E008C080

Symbol: MCI_FIFO
   Definitions
      At line 898 in file LPC23xx.inc
   Uses
      None
Comment: MCI_FIFO unused
MCI_FIFO_CNT E008C048

Symbol: MCI_FIFO_CNT
   Definitions
      At line 897 in file LPC23xx.inc
   Uses
      None
Comment: MCI_FIFO_CNT unused
MCI_MASK0 E008C03C

Symbol: MCI_MASK0
   Definitions
      At line 895 in file LPC23xx.inc
   Uses
      None
Comment: MCI_MASK0 unused
MCI_MASK1 E008C040

Symbol: MCI_MASK1
   Definitions
      At line 896 in file LPC23xx.inc
   Uses
      None
Comment: MCI_MASK1 unused
MCI_POWER E008C000

Symbol: MCI_POWER
   Definitions
      At line 880 in file LPC23xx.inc
   Uses
      None
Comment: MCI_POWER unused
MCI_RESP0 E008C014

Symbol: MCI_RESP0
   Definitions
      At line 885 in file LPC23xx.inc
   Uses
      None
Comment: MCI_RESP0 unused



ARM Macro Assembler    Page 78 Alphabetic symbol ordering
Absolute symbols

MCI_RESP1 E008C018

Symbol: MCI_RESP1
   Definitions
      At line 886 in file LPC23xx.inc
   Uses
      None
Comment: MCI_RESP1 unused
MCI_RESP2 E008C01C

Symbol: MCI_RESP2
   Definitions
      At line 887 in file LPC23xx.inc
   Uses
      None
Comment: MCI_RESP2 unused
MCI_RESP3 E008C020

Symbol: MCI_RESP3
   Definitions
      At line 888 in file LPC23xx.inc
   Uses
      None
Comment: MCI_RESP3 unused
MCI_RESP_CMD E008C010

Symbol: MCI_RESP_CMD
   Definitions
      At line 884 in file LPC23xx.inc
   Uses
      None
Comment: MCI_RESP_CMD unused
MCI_STATUS E008C034

Symbol: MCI_STATUS
   Definitions
      At line 893 in file LPC23xx.inc
   Uses
      None
Comment: MCI_STATUS unused
MEMMAP E01FC040

Symbol: MEMMAP
   Definitions
      At line 364 in file LPC23xx.inc
   Uses
      None
Comment: MEMMAP unused
NDD_REQ_INT_CLR FFE0C2B0

Symbol: NDD_REQ_INT_CLR
   Definitions
      At line 997 in file LPC23xx.inc
   Uses
      None
Comment: NDD_REQ_INT_CLR unused
NDD_REQ_INT_SET FFE0C2B4

Symbol: NDD_REQ_INT_SET



ARM Macro Assembler    Page 79 Alphabetic symbol ordering
Absolute symbols

   Definitions
      At line 998 in file LPC23xx.inc
   Uses
      None
Comment: NDD_REQ_INT_SET unused
NDD_REQ_INT_STAT FFE0C2AC

Symbol: NDD_REQ_INT_STAT
   Definitions
      At line 996 in file LPC23xx.inc
   Uses
      None
Comment: NDD_REQ_INT_STAT unused
NextLine 000000C0

Symbol: NextLine
   Definitions
      At line 18 in file PosPeriod_StringDisplay.s
   Uses
      At line 50 in file PosPeriod_StringDisplay.s
      At line 58 in file PosPeriod_StringDisplay.s
      At line 66 in file PosPeriod_StringDisplay.s
      At line 74 in file PosPeriod_StringDisplay.s
      At line 82 in file PosPeriod_StringDisplay.s
      At line 90 in file PosPeriod_StringDisplay.s
      At line 98 in file PosPeriod_StringDisplay.s
      At line 106 in file PosPeriod_StringDisplay.s

OTG_CLK_CTRL FFE0CFF4

Symbol: OTG_CLK_CTRL
   Definitions
      At line 1051 in file LPC23xx.inc
   Uses
      None
Comment: OTG_CLK_CTRL unused
OTG_CLK_STAT FFE0CFF8

Symbol: OTG_CLK_STAT
   Definitions
      At line 1052 in file LPC23xx.inc
   Uses
      None
Comment: OTG_CLK_STAT unused
OTG_I2C_CLKHI FFE0C30C

Symbol: OTG_I2C_CLKHI
   Definitions
      At line 1045 in file LPC23xx.inc
   Uses
      None
Comment: OTG_I2C_CLKHI unused
OTG_I2C_CLKLO FFE0C310

Symbol: OTG_I2C_CLKLO
   Definitions
      At line 1046 in file LPC23xx.inc
   Uses
      None



ARM Macro Assembler    Page 80 Alphabetic symbol ordering
Absolute symbols

Comment: OTG_I2C_CLKLO unused
OTG_I2C_CTL FFE0C308

Symbol: OTG_I2C_CTL
   Definitions
      At line 1044 in file LPC23xx.inc
   Uses
      None
Comment: OTG_I2C_CTL unused
OTG_I2C_RX FFE0C300

Symbol: OTG_I2C_RX
   Definitions
      At line 1041 in file LPC23xx.inc
   Uses
      None
Comment: OTG_I2C_RX unused
OTG_I2C_STS FFE0C304

Symbol: OTG_I2C_STS
   Definitions
      At line 1043 in file LPC23xx.inc
   Uses
      None
Comment: OTG_I2C_STS unused
OTG_I2C_TX FFE0C300

Symbol: OTG_I2C_TX
   Definitions
      At line 1042 in file LPC23xx.inc
   Uses
      None
Comment: OTG_I2C_TX unused
OTG_INT_CLR FFE0C10C

Symbol: OTG_INT_CLR
   Definitions
      At line 1035 in file LPC23xx.inc
   Uses
      None
Comment: OTG_INT_CLR unused
OTG_INT_EN FFE0C104

Symbol: OTG_INT_EN
   Definitions
      At line 1033 in file LPC23xx.inc
   Uses
      None
Comment: OTG_INT_EN unused
OTG_INT_SET FFE0C108

Symbol: OTG_INT_SET
   Definitions
      At line 1034 in file LPC23xx.inc
   Uses
      None
Comment: OTG_INT_SET unused
OTG_INT_STAT FFE0C100




ARM Macro Assembler    Page 81 Alphabetic symbol ordering
Absolute symbols

Symbol: OTG_INT_STAT
   Definitions
      At line 1032 in file LPC23xx.inc
   Uses
      None
Comment: OTG_INT_STAT unused
OTG_STAT_CTRL FFE0C110

Symbol: OTG_STAT_CTRL
   Definitions
      At line 1037 in file LPC23xx.inc
   Uses
      None
Comment: OTG_STAT_CTRL unused
OTG_TIMER FFE0C114

Symbol: OTG_TIMER
   Definitions
      At line 1038 in file LPC23xx.inc
   Uses
      None
Comment: OTG_TIMER unused
PARTCFG 3FFF8000

Symbol: PARTCFG
   Definitions
      At line 140 in file LPC23xx.inc
   Uses
      None
Comment: PARTCFG unused
PARTCFG_BASE_ADDR 3FFF8000

Symbol: PARTCFG_BASE_ADDR
   Definitions
      At line 139 in file LPC23xx.inc
   Uses
      At line 140 in file LPC23xx.inc
Comment: PARTCFG_BASE_ADDR used once
PCLKSEL0 E01FC1A8

Symbol: PCLKSEL0
   Definitions
      At line 381 in file LPC23xx.inc
   Uses
      None
Comment: PCLKSEL0 unused
PCLKSEL1 E01FC1AC

Symbol: PCLKSEL1
   Definitions
      At line 382 in file LPC23xx.inc
   Uses
      None
Comment: PCLKSEL1 unused
PCON E01FC0C0

Symbol: PCON
   Definitions
      At line 373 in file LPC23xx.inc



ARM Macro Assembler    Page 82 Alphabetic symbol ordering
Absolute symbols

   Uses
      None
Comment: PCON unused
PCONP E01FC0C4

Symbol: PCONP
   Definitions
      At line 374 in file LPC23xx.inc
   Uses
      None
Comment: PCONP unused
PINMODE0 E002C040

Symbol: PINMODE0
   Definitions
      At line 102 in file LPC23xx.inc
   Uses
      None
Comment: PINMODE0 unused
PINMODE1 E002C044

Symbol: PINMODE1
   Definitions
      At line 103 in file LPC23xx.inc
   Uses
      None
Comment: PINMODE1 unused
PINMODE2 E002C048

Symbol: PINMODE2
   Definitions
      At line 104 in file LPC23xx.inc
   Uses
      None
Comment: PINMODE2 unused
PINMODE3 E002C04C

Symbol: PINMODE3
   Definitions
      At line 105 in file LPC23xx.inc
   Uses
      None
Comment: PINMODE3 unused
PINMODE4 E002C050

Symbol: PINMODE4
   Definitions
      At line 106 in file LPC23xx.inc
   Uses
      None
Comment: PINMODE4 unused
PINMODE5 E002C054

Symbol: PINMODE5
   Definitions
      At line 107 in file LPC23xx.inc
   Uses
      None
Comment: PINMODE5 unused



ARM Macro Assembler    Page 83 Alphabetic symbol ordering
Absolute symbols

PINMODE6 E002C058

Symbol: PINMODE6
   Definitions
      At line 108 in file LPC23xx.inc
   Uses
      None
Comment: PINMODE6 unused
PINMODE7 E002C05C

Symbol: PINMODE7
   Definitions
      At line 109 in file LPC23xx.inc
   Uses
      None
Comment: PINMODE7 unused
PINMODE8 E002C060

Symbol: PINMODE8
   Definitions
      At line 110 in file LPC23xx.inc
   Uses
      None
Comment: PINMODE8 unused
PINMODE9 E002C064

Symbol: PINMODE9
   Definitions
      At line 111 in file LPC23xx.inc
   Uses
      None
Comment: PINMODE9 unused
PINSEL0 E002C000

Symbol: PINSEL0
   Definitions
      At line 90 in file LPC23xx.inc
   Uses
      None
Comment: PINSEL0 unused
PINSEL1 E002C004

Symbol: PINSEL1
   Definitions
      At line 91 in file LPC23xx.inc
   Uses
      None
Comment: PINSEL1 unused
PINSEL10 E002C028

Symbol: PINSEL10
   Definitions
      At line 100 in file LPC23xx.inc
   Uses
      None
Comment: PINSEL10 unused
PINSEL2 E002C008

Symbol: PINSEL2



ARM Macro Assembler    Page 84 Alphabetic symbol ordering
Absolute symbols

   Definitions
      At line 92 in file LPC23xx.inc
   Uses
      None
Comment: PINSEL2 unused
PINSEL3 E002C00C

Symbol: PINSEL3
   Definitions
      At line 93 in file LPC23xx.inc
   Uses
      None
Comment: PINSEL3 unused
PINSEL4 E002C010

Symbol: PINSEL4
   Definitions
      At line 94 in file LPC23xx.inc
   Uses
      None
Comment: PINSEL4 unused
PINSEL5 E002C014

Symbol: PINSEL5
   Definitions
      At line 95 in file LPC23xx.inc
   Uses
      None
Comment: PINSEL5 unused
PINSEL6 E002C018

Symbol: PINSEL6
   Definitions
      At line 96 in file LPC23xx.inc
   Uses
      None
Comment: PINSEL6 unused
PINSEL7 E002C01C

Symbol: PINSEL7
   Definitions
      At line 97 in file LPC23xx.inc
   Uses
      None
Comment: PINSEL7 unused
PINSEL8 E002C020

Symbol: PINSEL8
   Definitions
      At line 98 in file LPC23xx.inc
   Uses
      None
Comment: PINSEL8 unused
PINSEL9 E002C024

Symbol: PINSEL9
   Definitions
      At line 99 in file LPC23xx.inc
   Uses



ARM Macro Assembler    Page 85 Alphabetic symbol ordering
Absolute symbols

      None
Comment: PINSEL9 unused
PINSEL_BASE_ADDR E002C000

Symbol: PINSEL_BASE_ADDR
   Definitions
      At line 89 in file LPC23xx.inc
   Uses
      At line 90 in file LPC23xx.inc
      At line 91 in file LPC23xx.inc
      At line 92 in file LPC23xx.inc
      At line 93 in file LPC23xx.inc
      At line 94 in file LPC23xx.inc
      At line 95 in file LPC23xx.inc
      At line 96 in file LPC23xx.inc
      At line 97 in file LPC23xx.inc
      At line 98 in file LPC23xx.inc
      At line 99 in file LPC23xx.inc
      At line 100 in file LPC23xx.inc
      At line 102 in file LPC23xx.inc
      At line 103 in file LPC23xx.inc
      At line 104 in file LPC23xx.inc
      At line 105 in file LPC23xx.inc
      At line 106 in file LPC23xx.inc
      At line 107 in file LPC23xx.inc
      At line 108 in file LPC23xx.inc
      At line 109 in file LPC23xx.inc
      At line 110 in file LPC23xx.inc
      At line 111 in file LPC23xx.inc

PLLCFG E01FC084

Symbol: PLLCFG
   Definitions
      At line 368 in file LPC23xx.inc
   Uses
      None
Comment: PLLCFG unused
PLLCON E01FC080

Symbol: PLLCON
   Definitions
      At line 367 in file LPC23xx.inc
   Uses
      None
Comment: PLLCON unused
PLLFEED E01FC08C

Symbol: PLLFEED
   Definitions
      At line 370 in file LPC23xx.inc
   Uses
      None
Comment: PLLFEED unused
PLLSTAT E01FC088

Symbol: PLLSTAT
   Definitions
      At line 369 in file LPC23xx.inc



ARM Macro Assembler    Page 86 Alphabetic symbol ordering
Absolute symbols

   Uses
      None
Comment: PLLSTAT unused
PWM0CCR E0014028

Symbol: PWM0CCR
   Definitions
      At line 575 in file LPC23xx.inc
   Uses
      None
Comment: PWM0CCR unused
PWM0CR0 E001402C

Symbol: PWM0CR0
   Definitions
      At line 576 in file LPC23xx.inc
   Uses
      None
Comment: PWM0CR0 unused
PWM0CR1 E0014030

Symbol: PWM0CR1
   Definitions
      At line 577 in file LPC23xx.inc
   Uses
      None
Comment: PWM0CR1 unused
PWM0CR2 E0014034

Symbol: PWM0CR2
   Definitions
      At line 578 in file LPC23xx.inc
   Uses
      None
Comment: PWM0CR2 unused
PWM0CR3 E0014038

Symbol: PWM0CR3
   Definitions
      At line 579 in file LPC23xx.inc
   Uses
      None
Comment: PWM0CR3 unused
PWM0CTCR E0014070

Symbol: PWM0CTCR
   Definitions
      At line 586 in file LPC23xx.inc
   Uses
      None
Comment: PWM0CTCR unused
PWM0EMR E001403C

Symbol: PWM0EMR
   Definitions
      At line 580 in file LPC23xx.inc
   Uses
      None
Comment: PWM0EMR unused



ARM Macro Assembler    Page 87 Alphabetic symbol ordering
Absolute symbols

PWM0IR E0014000

Symbol: PWM0IR
   Definitions
      At line 565 in file LPC23xx.inc
   Uses
      None
Comment: PWM0IR unused
PWM0LER E0014050

Symbol: PWM0LER
   Definitions
      At line 585 in file LPC23xx.inc
   Uses
      None
Comment: PWM0LER unused
PWM0MCR E0014014

Symbol: PWM0MCR
   Definitions
      At line 570 in file LPC23xx.inc
   Uses
      None
Comment: PWM0MCR unused
PWM0MR0 E0014018

Symbol: PWM0MR0
   Definitions
      At line 571 in file LPC23xx.inc
   Uses
      None
Comment: PWM0MR0 unused
PWM0MR1 E001401C

Symbol: PWM0MR1
   Definitions
      At line 572 in file LPC23xx.inc
   Uses
      None
Comment: PWM0MR1 unused
PWM0MR2 E0014020

Symbol: PWM0MR2
   Definitions
      At line 573 in file LPC23xx.inc
   Uses
      None
Comment: PWM0MR2 unused
PWM0MR3 E0014024

Symbol: PWM0MR3
   Definitions
      At line 574 in file LPC23xx.inc
   Uses
      None
Comment: PWM0MR3 unused
PWM0MR4 E0014040

Symbol: PWM0MR4



ARM Macro Assembler    Page 88 Alphabetic symbol ordering
Absolute symbols

   Definitions
      At line 581 in file LPC23xx.inc
   Uses
      None
Comment: PWM0MR4 unused
PWM0MR5 E0014044

Symbol: PWM0MR5
   Definitions
      At line 582 in file LPC23xx.inc
   Uses
      None
Comment: PWM0MR5 unused
PWM0MR6 E0014048

Symbol: PWM0MR6
   Definitions
      At line 583 in file LPC23xx.inc
   Uses
      None
Comment: PWM0MR6 unused
PWM0PC E0014010

Symbol: PWM0PC
   Definitions
      At line 569 in file LPC23xx.inc
   Uses
      None
Comment: PWM0PC unused
PWM0PCR E001404C

Symbol: PWM0PCR
   Definitions
      At line 584 in file LPC23xx.inc
   Uses
      None
Comment: PWM0PCR unused
PWM0PR E001400C

Symbol: PWM0PR
   Definitions
      At line 568 in file LPC23xx.inc
   Uses
      None
Comment: PWM0PR unused
PWM0TC E0014008

Symbol: PWM0TC
   Definitions
      At line 567 in file LPC23xx.inc
   Uses
      None
Comment: PWM0TC unused
PWM0TCR E0014004

Symbol: PWM0TCR
   Definitions
      At line 566 in file LPC23xx.inc
   Uses



ARM Macro Assembler    Page 89 Alphabetic symbol ordering
Absolute symbols

      None
Comment: PWM0TCR unused
PWM0_BASE_ADDR E0014000

Symbol: PWM0_BASE_ADDR
   Definitions
      At line 564 in file LPC23xx.inc
   Uses
      At line 565 in file LPC23xx.inc
      At line 566 in file LPC23xx.inc
      At line 567 in file LPC23xx.inc
      At line 568 in file LPC23xx.inc
      At line 569 in file LPC23xx.inc
      At line 570 in file LPC23xx.inc
      At line 571 in file LPC23xx.inc
      At line 572 in file LPC23xx.inc
      At line 573 in file LPC23xx.inc
      At line 574 in file LPC23xx.inc
      At line 575 in file LPC23xx.inc
      At line 576 in file LPC23xx.inc
      At line 577 in file LPC23xx.inc
      At line 578 in file LPC23xx.inc
      At line 579 in file LPC23xx.inc
      At line 580 in file LPC23xx.inc
      At line 581 in file LPC23xx.inc
      At line 582 in file LPC23xx.inc
      At line 583 in file LPC23xx.inc
      At line 584 in file LPC23xx.inc
      At line 585 in file LPC23xx.inc
      At line 586 in file LPC23xx.inc

PWM1CCR E0018028

Symbol: PWM1CCR
   Definitions
      At line 599 in file LPC23xx.inc
   Uses
      None
Comment: PWM1CCR unused
PWM1CR0 E001802C

Symbol: PWM1CR0
   Definitions
      At line 600 in file LPC23xx.inc
   Uses
      None
Comment: PWM1CR0 unused
PWM1CR1 E0018030

Symbol: PWM1CR1
   Definitions
      At line 601 in file LPC23xx.inc
   Uses
      None
Comment: PWM1CR1 unused
PWM1CR2 E0018034

Symbol: PWM1CR2
   Definitions



ARM Macro Assembler    Page 90 Alphabetic symbol ordering
Absolute symbols

      At line 602 in file LPC23xx.inc
   Uses
      None
Comment: PWM1CR2 unused
PWM1CR3 E0018038

Symbol: PWM1CR3
   Definitions
      At line 603 in file LPC23xx.inc
   Uses
      None
Comment: PWM1CR3 unused
PWM1CTCR E0018070

Symbol: PWM1CTCR
   Definitions
      At line 610 in file LPC23xx.inc
   Uses
      None
Comment: PWM1CTCR unused
PWM1EMR E001803C

Symbol: PWM1EMR
   Definitions
      At line 604 in file LPC23xx.inc
   Uses
      None
Comment: PWM1EMR unused
PWM1IR E0018000

Symbol: PWM1IR
   Definitions
      At line 589 in file LPC23xx.inc
   Uses
      None
Comment: PWM1IR unused
PWM1LER E0018050

Symbol: PWM1LER
   Definitions
      At line 609 in file LPC23xx.inc
   Uses
      None
Comment: PWM1LER unused
PWM1MCR E0018014

Symbol: PWM1MCR
   Definitions
      At line 594 in file LPC23xx.inc
   Uses
      None
Comment: PWM1MCR unused
PWM1MR0 E0018018

Symbol: PWM1MR0
   Definitions
      At line 595 in file LPC23xx.inc
   Uses
      None



ARM Macro Assembler    Page 91 Alphabetic symbol ordering
Absolute symbols

Comment: PWM1MR0 unused
PWM1MR1 E001801C

Symbol: PWM1MR1
   Definitions
      At line 596 in file LPC23xx.inc
   Uses
      None
Comment: PWM1MR1 unused
PWM1MR2 E0018020

Symbol: PWM1MR2
   Definitions
      At line 597 in file LPC23xx.inc
   Uses
      None
Comment: PWM1MR2 unused
PWM1MR3 E0018024

Symbol: PWM1MR3
   Definitions
      At line 598 in file LPC23xx.inc
   Uses
      None
Comment: PWM1MR3 unused
PWM1MR4 E0018040

Symbol: PWM1MR4
   Definitions
      At line 605 in file LPC23xx.inc
   Uses
      None
Comment: PWM1MR4 unused
PWM1MR5 E0018044

Symbol: PWM1MR5
   Definitions
      At line 606 in file LPC23xx.inc
   Uses
      None
Comment: PWM1MR5 unused
PWM1MR6 E0018048

Symbol: PWM1MR6
   Definitions
      At line 607 in file LPC23xx.inc
   Uses
      None
Comment: PWM1MR6 unused
PWM1PC E0018010

Symbol: PWM1PC
   Definitions
      At line 593 in file LPC23xx.inc
   Uses
      None
Comment: PWM1PC unused
PWM1PCR E001804C




ARM Macro Assembler    Page 92 Alphabetic symbol ordering
Absolute symbols

Symbol: PWM1PCR
   Definitions
      At line 608 in file LPC23xx.inc
   Uses
      None
Comment: PWM1PCR unused
PWM1PR E001800C

Symbol: PWM1PR
   Definitions
      At line 592 in file LPC23xx.inc
   Uses
      None
Comment: PWM1PR unused
PWM1TC E0018008

Symbol: PWM1TC
   Definitions
      At line 591 in file LPC23xx.inc
   Uses
      None
Comment: PWM1TC unused
PWM1TCR E0018004

Symbol: PWM1TCR
   Definitions
      At line 590 in file LPC23xx.inc
   Uses
      None
Comment: PWM1TCR unused
PWM1_BASE_ADDR E0018000

Symbol: PWM1_BASE_ADDR
   Definitions
      At line 588 in file LPC23xx.inc
   Uses
      At line 589 in file LPC23xx.inc
      At line 590 in file LPC23xx.inc
      At line 591 in file LPC23xx.inc
      At line 592 in file LPC23xx.inc
      At line 593 in file LPC23xx.inc
      At line 594 in file LPC23xx.inc
      At line 595 in file LPC23xx.inc
      At line 596 in file LPC23xx.inc
      At line 597 in file LPC23xx.inc
      At line 598 in file LPC23xx.inc
      At line 599 in file LPC23xx.inc
      At line 600 in file LPC23xx.inc
      At line 601 in file LPC23xx.inc
      At line 602 in file LPC23xx.inc
      At line 603 in file LPC23xx.inc
      At line 604 in file LPC23xx.inc
      At line 605 in file LPC23xx.inc
      At line 606 in file LPC23xx.inc
      At line 607 in file LPC23xx.inc
      At line 608 in file LPC23xx.inc
      At line 609 in file LPC23xx.inc
      At line 610 in file LPC23xx.inc




ARM Macro Assembler    Page 93 Alphabetic symbol ordering
Absolute symbols

REALIZE_EP FFE0C244

Symbol: REALIZE_EP
   Definitions
      At line 968 in file LPC23xx.inc
   Uses
      None
Comment: REALIZE_EP unused
RSIR E01FC180

Symbol: RSIR
   Definitions
      At line 391 in file LPC23xx.inc
   Uses
      None
Comment: RSIR unused
RTC_ALDOM E002406C

Symbol: RTC_ALDOM
   Definitions
      At line 769 in file LPC23xx.inc
   Uses
      None
Comment: RTC_ALDOM unused
RTC_ALDOW E0024070

Symbol: RTC_ALDOW
   Definitions
      At line 770 in file LPC23xx.inc
   Uses
      None
Comment: RTC_ALDOW unused
RTC_ALDOY E0024074

Symbol: RTC_ALDOY
   Definitions
      At line 771 in file LPC23xx.inc
   Uses
      None
Comment: RTC_ALDOY unused
RTC_ALHOUR E0024068

Symbol: RTC_ALHOUR
   Definitions
      At line 768 in file LPC23xx.inc
   Uses
      None
Comment: RTC_ALHOUR unused
RTC_ALMIN E0024064

Symbol: RTC_ALMIN
   Definitions
      At line 767 in file LPC23xx.inc
   Uses
      None
Comment: RTC_ALMIN unused
RTC_ALMON E0024078

Symbol: RTC_ALMON



ARM Macro Assembler    Page 94 Alphabetic symbol ordering
Absolute symbols

   Definitions
      At line 772 in file LPC23xx.inc
   Uses
      None
Comment: RTC_ALMON unused
RTC_ALSEC E0024060

Symbol: RTC_ALSEC
   Definitions
      At line 766 in file LPC23xx.inc
   Uses
      None
Comment: RTC_ALSEC unused
RTC_ALYEAR E002407C

Symbol: RTC_ALYEAR
   Definitions
      At line 773 in file LPC23xx.inc
   Uses
      None
Comment: RTC_ALYEAR unused
RTC_AMR E0024010

Symbol: RTC_AMR
   Definitions
      At line 753 in file LPC23xx.inc
   Uses
      None
Comment: RTC_AMR unused
RTC_BASE_ADDR E0024000

Symbol: RTC_BASE_ADDR
   Definitions
      At line 748 in file LPC23xx.inc
   Uses
      At line 749 in file LPC23xx.inc
      At line 750 in file LPC23xx.inc
      At line 751 in file LPC23xx.inc
      At line 752 in file LPC23xx.inc
      At line 753 in file LPC23xx.inc
      At line 754 in file LPC23xx.inc
      At line 755 in file LPC23xx.inc
      At line 756 in file LPC23xx.inc
      At line 757 in file LPC23xx.inc
      At line 758 in file LPC23xx.inc
      At line 759 in file LPC23xx.inc
      At line 760 in file LPC23xx.inc
      At line 761 in file LPC23xx.inc
      At line 762 in file LPC23xx.inc
      At line 763 in file LPC23xx.inc
      At line 764 in file LPC23xx.inc
      At line 765 in file LPC23xx.inc
      At line 766 in file LPC23xx.inc
      At line 767 in file LPC23xx.inc
      At line 768 in file LPC23xx.inc
      At line 769 in file LPC23xx.inc
      At line 770 in file LPC23xx.inc
      At line 771 in file LPC23xx.inc
      At line 772 in file LPC23xx.inc



ARM Macro Assembler    Page 95 Alphabetic symbol ordering
Absolute symbols

      At line 773 in file LPC23xx.inc
      At line 774 in file LPC23xx.inc
      At line 775 in file LPC23xx.inc

RTC_CCR E0024008

Symbol: RTC_CCR
   Definitions
      At line 751 in file LPC23xx.inc
   Uses
      None
Comment: RTC_CCR unused
RTC_CIIR E002400C

Symbol: RTC_CIIR
   Definitions
      At line 752 in file LPC23xx.inc
   Uses
      None
Comment: RTC_CIIR unused
RTC_CISS E0024040

Symbol: RTC_CISS
   Definitions
      At line 765 in file LPC23xx.inc
   Uses
      None
Comment: RTC_CISS unused
RTC_CTC E0024004

Symbol: RTC_CTC
   Definitions
      At line 750 in file LPC23xx.inc
   Uses
      None
Comment: RTC_CTC unused
RTC_CTIME0 E0024014

Symbol: RTC_CTIME0
   Definitions
      At line 754 in file LPC23xx.inc
   Uses
      None
Comment: RTC_CTIME0 unused
RTC_CTIME1 E0024018

Symbol: RTC_CTIME1
   Definitions
      At line 755 in file LPC23xx.inc
   Uses
      None
Comment: RTC_CTIME1 unused
RTC_CTIME2 E002401C

Symbol: RTC_CTIME2
   Definitions
      At line 756 in file LPC23xx.inc
   Uses
      None



ARM Macro Assembler    Page 96 Alphabetic symbol ordering
Absolute symbols

Comment: RTC_CTIME2 unused
RTC_DOM E002402C

Symbol: RTC_DOM
   Definitions
      At line 760 in file LPC23xx.inc
   Uses
      None
Comment: RTC_DOM unused
RTC_DOW E0024030

Symbol: RTC_DOW
   Definitions
      At line 761 in file LPC23xx.inc
   Uses
      None
Comment: RTC_DOW unused
RTC_DOY E0024034

Symbol: RTC_DOY
   Definitions
      At line 762 in file LPC23xx.inc
   Uses
      None
Comment: RTC_DOY unused
RTC_HOUR E0024028

Symbol: RTC_HOUR
   Definitions
      At line 759 in file LPC23xx.inc
   Uses
      None
Comment: RTC_HOUR unused
RTC_ILR E0024000

Symbol: RTC_ILR
   Definitions
      At line 749 in file LPC23xx.inc
   Uses
      None
Comment: RTC_ILR unused
RTC_MIN E0024024

Symbol: RTC_MIN
   Definitions
      At line 758 in file LPC23xx.inc
   Uses
      None
Comment: RTC_MIN unused
RTC_MONTH E0024038

Symbol: RTC_MONTH
   Definitions
      At line 763 in file LPC23xx.inc
   Uses
      None
Comment: RTC_MONTH unused
RTC_PREFRAC E0024084




ARM Macro Assembler    Page 97 Alphabetic symbol ordering
Absolute symbols

Symbol: RTC_PREFRAC
   Definitions
      At line 775 in file LPC23xx.inc
   Uses
      None
Comment: RTC_PREFRAC unused
RTC_PREINT E0024080

Symbol: RTC_PREINT
   Definitions
      At line 774 in file LPC23xx.inc
   Uses
      None
Comment: RTC_PREINT unused
RTC_SEC E0024020

Symbol: RTC_SEC
   Definitions
      At line 757 in file LPC23xx.inc
   Uses
      None
Comment: RTC_SEC unused
RTC_YEAR E002403C

Symbol: RTC_YEAR
   Definitions
      At line 764 in file LPC23xx.inc
   Uses
      None
Comment: RTC_YEAR unused
RX_DATA FFE0C218

Symbol: RX_DATA
   Definitions
      At line 977 in file LPC23xx.inc
   Uses
      None
Comment: RX_DATA unused
RX_PLENGTH FFE0C220

Symbol: RX_PLENGTH
   Definitions
      At line 979 in file LPC23xx.inc
   Uses
      None
Comment: RX_PLENGTH unused
S0SPCCR E002000C

Symbol: S0SPCCR
   Definitions
      At line 717 in file LPC23xx.inc
   Uses
      None
Comment: S0SPCCR unused
S0SPCR E0020000

Symbol: S0SPCR
   Definitions
      At line 714 in file LPC23xx.inc



ARM Macro Assembler    Page 98 Alphabetic symbol ordering
Absolute symbols

   Uses
      None
Comment: S0SPCR unused
S0SPDR E0020008

Symbol: S0SPDR
   Definitions
      At line 716 in file LPC23xx.inc
   Uses
      None
Comment: S0SPDR unused
S0SPINT E002001C

Symbol: S0SPINT
   Definitions
      At line 718 in file LPC23xx.inc
   Uses
      None
Comment: S0SPINT unused
S0SPSR E0020004

Symbol: S0SPSR
   Definitions
      At line 715 in file LPC23xx.inc
   Uses
      None
Comment: S0SPSR unused
SCB_BASE_ADDR E01FC000

Symbol: SCB_BASE_ADDR
   Definitions
      At line 359 in file LPC23xx.inc
   Uses
      At line 362 in file LPC23xx.inc
      At line 363 in file LPC23xx.inc
      At line 364 in file LPC23xx.inc
      At line 367 in file LPC23xx.inc
      At line 368 in file LPC23xx.inc
      At line 369 in file LPC23xx.inc
      At line 370 in file LPC23xx.inc
      At line 373 in file LPC23xx.inc
      At line 374 in file LPC23xx.inc
      At line 378 in file LPC23xx.inc
      At line 379 in file LPC23xx.inc
      At line 380 in file LPC23xx.inc
      At line 381 in file LPC23xx.inc
      At line 382 in file LPC23xx.inc
      At line 385 in file LPC23xx.inc
      At line 386 in file LPC23xx.inc
      At line 387 in file LPC23xx.inc
      At line 388 in file LPC23xx.inc
      At line 391 in file LPC23xx.inc
      At line 394 in file LPC23xx.inc
      At line 397 in file LPC23xx.inc
      At line 398 in file LPC23xx.inc
      At line 401 in file LPC23xx.inc

SCS E01FC1A0




ARM Macro Assembler    Page 99 Alphabetic symbol ordering
Absolute symbols

Symbol: SCS
   Definitions
      At line 401 in file LPC23xx.inc
   Uses
      None
Comment: SCS unused
SPI0_BASE_ADDR E0020000

Symbol: SPI0_BASE_ADDR
   Definitions
      At line 713 in file LPC23xx.inc
   Uses
      At line 714 in file LPC23xx.inc
      At line 715 in file LPC23xx.inc
      At line 716 in file LPC23xx.inc
      At line 717 in file LPC23xx.inc
      At line 718 in file LPC23xx.inc

SSP0CPSR E0068010

Symbol: SSP0CPSR
   Definitions
      At line 726 in file LPC23xx.inc
   Uses
      None
Comment: SSP0CPSR unused
SSP0CR0 E0068000

Symbol: SSP0CR0
   Definitions
      At line 722 in file LPC23xx.inc
   Uses
      None
Comment: SSP0CR0 unused
SSP0CR1 E0068004

Symbol: SSP0CR1
   Definitions
      At line 723 in file LPC23xx.inc
   Uses
      None
Comment: SSP0CR1 unused
SSP0DMACR E0068024

Symbol: SSP0DMACR
   Definitions
      At line 731 in file LPC23xx.inc
   Uses
      None
Comment: SSP0DMACR unused
SSP0DR E0068008

Symbol: SSP0DR
   Definitions
      At line 724 in file LPC23xx.inc
   Uses
      None
Comment: SSP0DR unused
SSP0ICR E0068020



ARM Macro Assembler    Page 100 Alphabetic symbol ordering
Absolute symbols


Symbol: SSP0ICR
   Definitions
      At line 730 in file LPC23xx.inc
   Uses
      None
Comment: SSP0ICR unused
SSP0IMSC E0068014

Symbol: SSP0IMSC
   Definitions
      At line 727 in file LPC23xx.inc
   Uses
      None
Comment: SSP0IMSC unused
SSP0MIS E006801C

Symbol: SSP0MIS
   Definitions
      At line 729 in file LPC23xx.inc
   Uses
      None
Comment: SSP0MIS unused
SSP0RIS E0068018

Symbol: SSP0RIS
   Definitions
      At line 728 in file LPC23xx.inc
   Uses
      None
Comment: SSP0RIS unused
SSP0SR E006800C

Symbol: SSP0SR
   Definitions
      At line 725 in file LPC23xx.inc
   Uses
      None
Comment: SSP0SR unused
SSP0_BASE_ADDR E0068000

Symbol: SSP0_BASE_ADDR
   Definitions
      At line 721 in file LPC23xx.inc
   Uses
      At line 722 in file LPC23xx.inc
      At line 723 in file LPC23xx.inc
      At line 724 in file LPC23xx.inc
      At line 725 in file LPC23xx.inc
      At line 726 in file LPC23xx.inc
      At line 727 in file LPC23xx.inc
      At line 728 in file LPC23xx.inc
      At line 729 in file LPC23xx.inc
      At line 730 in file LPC23xx.inc
      At line 731 in file LPC23xx.inc

SSP1CPSR E0030010

Symbol: SSP1CPSR



ARM Macro Assembler    Page 101 Alphabetic symbol ordering
Absolute symbols

   Definitions
      At line 739 in file LPC23xx.inc
   Uses
      None
Comment: SSP1CPSR unused
SSP1CR0 E0030000

Symbol: SSP1CR0
   Definitions
      At line 735 in file LPC23xx.inc
   Uses
      None
Comment: SSP1CR0 unused
SSP1CR1 E0030004

Symbol: SSP1CR1
   Definitions
      At line 736 in file LPC23xx.inc
   Uses
      None
Comment: SSP1CR1 unused
SSP1DMACR E0030024

Symbol: SSP1DMACR
   Definitions
      At line 744 in file LPC23xx.inc
   Uses
      None
Comment: SSP1DMACR unused
SSP1DR E0030008

Symbol: SSP1DR
   Definitions
      At line 737 in file LPC23xx.inc
   Uses
      None
Comment: SSP1DR unused
SSP1ICR E0030020

Symbol: SSP1ICR
   Definitions
      At line 743 in file LPC23xx.inc
   Uses
      None
Comment: SSP1ICR unused
SSP1IMSC E0030014

Symbol: SSP1IMSC
   Definitions
      At line 740 in file LPC23xx.inc
   Uses
      None
Comment: SSP1IMSC unused
SSP1MIS E003001C

Symbol: SSP1MIS
   Definitions
      At line 742 in file LPC23xx.inc
   Uses



ARM Macro Assembler    Page 102 Alphabetic symbol ordering
Absolute symbols

      None
Comment: SSP1MIS unused
SSP1RIS E0030018

Symbol: SSP1RIS
   Definitions
      At line 741 in file LPC23xx.inc
   Uses
      None
Comment: SSP1RIS unused
SSP1SR E003000C

Symbol: SSP1SR
   Definitions
      At line 738 in file LPC23xx.inc
   Uses
      None
Comment: SSP1SR unused
SSP1_BASE_ADDR E0030000

Symbol: SSP1_BASE_ADDR
   Definitions
      At line 734 in file LPC23xx.inc
   Uses
      At line 735 in file LPC23xx.inc
      At line 736 in file LPC23xx.inc
      At line 737 in file LPC23xx.inc
      At line 738 in file LPC23xx.inc
      At line 739 in file LPC23xx.inc
      At line 740 in file LPC23xx.inc
      At line 741 in file LPC23xx.inc
      At line 742 in file LPC23xx.inc
      At line 743 in file LPC23xx.inc
      At line 744 in file LPC23xx.inc

STATIC_MEM0_BASE 80000000

Symbol: STATIC_MEM0_BASE
   Definitions
      At line 405 in file LPC23xx.inc
   Uses
      None
Comment: STATIC_MEM0_BASE unused
STATIC_MEM1_BASE 81000000

Symbol: STATIC_MEM1_BASE
   Definitions
      At line 406 in file LPC23xx.inc
   Uses
      None
Comment: STATIC_MEM1_BASE unused
STATIC_MEM2_BASE 82000000

Symbol: STATIC_MEM2_BASE
   Definitions
      At line 407 in file LPC23xx.inc
   Uses
      None
Comment: STATIC_MEM2_BASE unused



ARM Macro Assembler    Page 103 Alphabetic symbol ordering
Absolute symbols

STATIC_MEM3_BASE 83000000

Symbol: STATIC_MEM3_BASE
   Definitions
      At line 408 in file LPC23xx.inc
   Uses
      None
Comment: STATIC_MEM3_BASE unused
SYS_ERR_INT_CLR FFE0C2BC

Symbol: SYS_ERR_INT_CLR
   Definitions
      At line 1000 in file LPC23xx.inc
   Uses
      None
Comment: SYS_ERR_INT_CLR unused
SYS_ERR_INT_SET FFE0C2C0

Symbol: SYS_ERR_INT_SET
   Definitions
      At line 1001 in file LPC23xx.inc
   Uses
      None
Comment: SYS_ERR_INT_SET unused
SYS_ERR_INT_STAT FFE0C2B8

Symbol: SYS_ERR_INT_STAT
   Definitions
      At line 999 in file LPC23xx.inc
   Uses
      None
Comment: SYS_ERR_INT_STAT unused
T0CCR E0004028

Symbol: T0CCR
   Definitions
      At line 494 in file LPC23xx.inc
   Uses
      None
Comment: T0CCR unused
T0CR0 E000402C

Symbol: T0CR0
   Definitions
      At line 495 in file LPC23xx.inc
   Uses
      None
Comment: T0CR0 unused
T0CR1 E0004030

Symbol: T0CR1
   Definitions
      At line 496 in file LPC23xx.inc
   Uses
      None
Comment: T0CR1 unused
T0CR2 E0004034

Symbol: T0CR2



ARM Macro Assembler    Page 104 Alphabetic symbol ordering
Absolute symbols

   Definitions
      At line 497 in file LPC23xx.inc
   Uses
      None
Comment: T0CR2 unused
T0CR3 E0004038

Symbol: T0CR3
   Definitions
      At line 498 in file LPC23xx.inc
   Uses
      None
Comment: T0CR3 unused
T0CTCR E0004070

Symbol: T0CTCR
   Definitions
      At line 500 in file LPC23xx.inc
   Uses
      None
Comment: T0CTCR unused
T0EMR E000403C

Symbol: T0EMR
   Definitions
      At line 499 in file LPC23xx.inc
   Uses
      None
Comment: T0EMR unused
T0IR E0004000

Symbol: T0IR
   Definitions
      At line 484 in file LPC23xx.inc
   Uses
      None
Comment: T0IR unused
T0MCR E0004014

Symbol: T0MCR
   Definitions
      At line 489 in file LPC23xx.inc
   Uses
      None
Comment: T0MCR unused
T0MR0 E0004018

Symbol: T0MR0
   Definitions
      At line 490 in file LPC23xx.inc
   Uses
      None
Comment: T0MR0 unused
T0MR1 E000401C

Symbol: T0MR1
   Definitions
      At line 491 in file LPC23xx.inc
   Uses



ARM Macro Assembler    Page 105 Alphabetic symbol ordering
Absolute symbols

      None
Comment: T0MR1 unused
T0MR2 E0004020

Symbol: T0MR2
   Definitions
      At line 492 in file LPC23xx.inc
   Uses
      None
Comment: T0MR2 unused
T0MR3 E0004024

Symbol: T0MR3
   Definitions
      At line 493 in file LPC23xx.inc
   Uses
      None
Comment: T0MR3 unused
T0PC E0004010

Symbol: T0PC
   Definitions
      At line 488 in file LPC23xx.inc
   Uses
      None
Comment: T0PC unused
T0PR E000400C

Symbol: T0PR
   Definitions
      At line 487 in file LPC23xx.inc
   Uses
      None
Comment: T0PR unused
T0TC E0004008

Symbol: T0TC
   Definitions
      At line 486 in file LPC23xx.inc
   Uses
      None
Comment: T0TC unused
T0TCR E0004004

Symbol: T0TCR
   Definitions
      At line 485 in file LPC23xx.inc
   Uses
      None
Comment: T0TCR unused
T1CCR E0008028

Symbol: T1CCR
   Definitions
      At line 514 in file LPC23xx.inc
   Uses
      None
Comment: T1CCR unused
T1CR0 E000802C



ARM Macro Assembler    Page 106 Alphabetic symbol ordering
Absolute symbols


Symbol: T1CR0
   Definitions
      At line 515 in file LPC23xx.inc
   Uses
      None
Comment: T1CR0 unused
T1CR1 E0008030

Symbol: T1CR1
   Definitions
      At line 516 in file LPC23xx.inc
   Uses
      None
Comment: T1CR1 unused
T1CR2 E0008034

Symbol: T1CR2
   Definitions
      At line 517 in file LPC23xx.inc
   Uses
      None
Comment: T1CR2 unused
T1CR3 E0008038

Symbol: T1CR3
   Definitions
      At line 518 in file LPC23xx.inc
   Uses
      None
Comment: T1CR3 unused
T1CTCR E0008070

Symbol: T1CTCR
   Definitions
      At line 520 in file LPC23xx.inc
   Uses
      None
Comment: T1CTCR unused
T1EMR E000803C

Symbol: T1EMR
   Definitions
      At line 519 in file LPC23xx.inc
   Uses
      None
Comment: T1EMR unused
T1IR E0008000

Symbol: T1IR
   Definitions
      At line 504 in file LPC23xx.inc
   Uses
      None
Comment: T1IR unused
T1MCR E0008014

Symbol: T1MCR
   Definitions



ARM Macro Assembler    Page 107 Alphabetic symbol ordering
Absolute symbols

      At line 509 in file LPC23xx.inc
   Uses
      None
Comment: T1MCR unused
T1MR0 E0008018

Symbol: T1MR0
   Definitions
      At line 510 in file LPC23xx.inc
   Uses
      None
Comment: T1MR0 unused
T1MR1 E000801C

Symbol: T1MR1
   Definitions
      At line 511 in file LPC23xx.inc
   Uses
      None
Comment: T1MR1 unused
T1MR2 E0008020

Symbol: T1MR2
   Definitions
      At line 512 in file LPC23xx.inc
   Uses
      None
Comment: T1MR2 unused
T1MR3 E0008024

Symbol: T1MR3
   Definitions
      At line 513 in file LPC23xx.inc
   Uses
      None
Comment: T1MR3 unused
T1PC E0008010

Symbol: T1PC
   Definitions
      At line 508 in file LPC23xx.inc
   Uses
      None
Comment: T1PC unused
T1PR E000800C

Symbol: T1PR
   Definitions
      At line 507 in file LPC23xx.inc
   Uses
      None
Comment: T1PR unused
T1TC E0008008

Symbol: T1TC
   Definitions
      At line 506 in file LPC23xx.inc
   Uses
      None



ARM Macro Assembler    Page 108 Alphabetic symbol ordering
Absolute symbols

Comment: T1TC unused
T1TCR E0008004

Symbol: T1TCR
   Definitions
      At line 505 in file LPC23xx.inc
   Uses
      None
Comment: T1TCR unused
T2CCR E0070028

Symbol: T2CCR
   Definitions
      At line 534 in file LPC23xx.inc
   Uses
      None
Comment: T2CCR unused
T2CR0 E007002C

Symbol: T2CR0
   Definitions
      At line 535 in file LPC23xx.inc
   Uses
      None
Comment: T2CR0 unused
T2CR1 E0070030

Symbol: T2CR1
   Definitions
      At line 536 in file LPC23xx.inc
   Uses
      None
Comment: T2CR1 unused
T2CR2 E0070034

Symbol: T2CR2
   Definitions
      At line 537 in file LPC23xx.inc
   Uses
      None
Comment: T2CR2 unused
T2CR3 E0070038

Symbol: T2CR3
   Definitions
      At line 538 in file LPC23xx.inc
   Uses
      None
Comment: T2CR3 unused
T2CTCR E0070070

Symbol: T2CTCR
   Definitions
      At line 540 in file LPC23xx.inc
   Uses
      None
Comment: T2CTCR unused
T2EMR E007003C




ARM Macro Assembler    Page 109 Alphabetic symbol ordering
Absolute symbols

Symbol: T2EMR
   Definitions
      At line 539 in file LPC23xx.inc
   Uses
      None
Comment: T2EMR unused
T2IR E0070000

Symbol: T2IR
   Definitions
      At line 524 in file LPC23xx.inc
   Uses
      None
Comment: T2IR unused
T2MCR E0070014

Symbol: T2MCR
   Definitions
      At line 529 in file LPC23xx.inc
   Uses
      None
Comment: T2MCR unused
T2MR0 E0070018

Symbol: T2MR0
   Definitions
      At line 530 in file LPC23xx.inc
   Uses
      None
Comment: T2MR0 unused
T2MR1 E007001C

Symbol: T2MR1
   Definitions
      At line 531 in file LPC23xx.inc
   Uses
      None
Comment: T2MR1 unused
T2MR2 E0070020

Symbol: T2MR2
   Definitions
      At line 532 in file LPC23xx.inc
   Uses
      None
Comment: T2MR2 unused
T2MR3 E0070024

Symbol: T2MR3
   Definitions
      At line 533 in file LPC23xx.inc
   Uses
      None
Comment: T2MR3 unused
T2PC E0070010

Symbol: T2PC
   Definitions
      At line 528 in file LPC23xx.inc



ARM Macro Assembler    Page 110 Alphabetic symbol ordering
Absolute symbols

   Uses
      None
Comment: T2PC unused
T2PR E007000C

Symbol: T2PR
   Definitions
      At line 527 in file LPC23xx.inc
   Uses
      None
Comment: T2PR unused
T2TC E0070008

Symbol: T2TC
   Definitions
      At line 526 in file LPC23xx.inc
   Uses
      None
Comment: T2TC unused
T2TCR E0070004

Symbol: T2TCR
   Definitions
      At line 525 in file LPC23xx.inc
   Uses
      None
Comment: T2TCR unused
T3CCR E0074028

Symbol: T3CCR
   Definitions
      At line 554 in file LPC23xx.inc
   Uses
      None
Comment: T3CCR unused
T3CR0 E007402C

Symbol: T3CR0
   Definitions
      At line 555 in file LPC23xx.inc
   Uses
      None
Comment: T3CR0 unused
T3CR1 E0074030

Symbol: T3CR1
   Definitions
      At line 556 in file LPC23xx.inc
   Uses
      None
Comment: T3CR1 unused
T3CR2 E0074034

Symbol: T3CR2
   Definitions
      At line 557 in file LPC23xx.inc
   Uses
      None
Comment: T3CR2 unused



ARM Macro Assembler    Page 111 Alphabetic symbol ordering
Absolute symbols

T3CR3 E0074038

Symbol: T3CR3
   Definitions
      At line 558 in file LPC23xx.inc
   Uses
      None
Comment: T3CR3 unused
T3CTCR E0074070

Symbol: T3CTCR
   Definitions
      At line 560 in file LPC23xx.inc
   Uses
      None
Comment: T3CTCR unused
T3EMR E007403C

Symbol: T3EMR
   Definitions
      At line 559 in file LPC23xx.inc
   Uses
      None
Comment: T3EMR unused
T3IR E0074000

Symbol: T3IR
   Definitions
      At line 544 in file LPC23xx.inc
   Uses
      None
Comment: T3IR unused
T3MCR E0074014

Symbol: T3MCR
   Definitions
      At line 549 in file LPC23xx.inc
   Uses
      None
Comment: T3MCR unused
T3MR0 E0074018

Symbol: T3MR0
   Definitions
      At line 550 in file LPC23xx.inc
   Uses
      None
Comment: T3MR0 unused
T3MR1 E007401C

Symbol: T3MR1
   Definitions
      At line 551 in file LPC23xx.inc
   Uses
      None
Comment: T3MR1 unused
T3MR2 E0074020

Symbol: T3MR2



ARM Macro Assembler    Page 112 Alphabetic symbol ordering
Absolute symbols

   Definitions
      At line 552 in file LPC23xx.inc
   Uses
      None
Comment: T3MR2 unused
T3MR3 E0074024

Symbol: T3MR3
   Definitions
      At line 553 in file LPC23xx.inc
   Uses
      None
Comment: T3MR3 unused
T3PC E0074010

Symbol: T3PC
   Definitions
      At line 548 in file LPC23xx.inc
   Uses
      None
Comment: T3PC unused
T3PR E007400C

Symbol: T3PR
   Definitions
      At line 547 in file LPC23xx.inc
   Uses
      None
Comment: T3PR unused
T3TC E0074008

Symbol: T3TC
   Definitions
      At line 546 in file LPC23xx.inc
   Uses
      None
Comment: T3TC unused
T3TCR E0074004

Symbol: T3TCR
   Definitions
      At line 545 in file LPC23xx.inc
   Uses
      None
Comment: T3TCR unused
TMR0_BASE_ADDR E0004000

Symbol: TMR0_BASE_ADDR
   Definitions
      At line 483 in file LPC23xx.inc
   Uses
      At line 484 in file LPC23xx.inc
      At line 485 in file LPC23xx.inc
      At line 486 in file LPC23xx.inc
      At line 487 in file LPC23xx.inc
      At line 488 in file LPC23xx.inc
      At line 489 in file LPC23xx.inc
      At line 490 in file LPC23xx.inc
      At line 491 in file LPC23xx.inc



ARM Macro Assembler    Page 113 Alphabetic symbol ordering
Absolute symbols

      At line 492 in file LPC23xx.inc
      At line 493 in file LPC23xx.inc
      At line 494 in file LPC23xx.inc
      At line 495 in file LPC23xx.inc
      At line 496 in file LPC23xx.inc
      At line 497 in file LPC23xx.inc
      At line 498 in file LPC23xx.inc
      At line 499 in file LPC23xx.inc
      At line 500 in file LPC23xx.inc

TMR1_BASE_ADDR E0008000

Symbol: TMR1_BASE_ADDR
   Definitions
      At line 503 in file LPC23xx.inc
   Uses
      At line 504 in file LPC23xx.inc
      At line 505 in file LPC23xx.inc
      At line 506 in file LPC23xx.inc
      At line 507 in file LPC23xx.inc
      At line 508 in file LPC23xx.inc
      At line 509 in file LPC23xx.inc
      At line 510 in file LPC23xx.inc
      At line 511 in file LPC23xx.inc
      At line 512 in file LPC23xx.inc
      At line 513 in file LPC23xx.inc
      At line 514 in file LPC23xx.inc
      At line 515 in file LPC23xx.inc
      At line 516 in file LPC23xx.inc
      At line 517 in file LPC23xx.inc
      At line 518 in file LPC23xx.inc
      At line 519 in file LPC23xx.inc
      At line 520 in file LPC23xx.inc

TMR2_BASE_ADDR E0070000

Symbol: TMR2_BASE_ADDR
   Definitions
      At line 523 in file LPC23xx.inc
   Uses
      At line 524 in file LPC23xx.inc
      At line 525 in file LPC23xx.inc
      At line 526 in file LPC23xx.inc
      At line 527 in file LPC23xx.inc
      At line 528 in file LPC23xx.inc
      At line 529 in file LPC23xx.inc
      At line 530 in file LPC23xx.inc
      At line 531 in file LPC23xx.inc
      At line 532 in file LPC23xx.inc
      At line 533 in file LPC23xx.inc
      At line 534 in file LPC23xx.inc
      At line 535 in file LPC23xx.inc
      At line 536 in file LPC23xx.inc
      At line 537 in file LPC23xx.inc
      At line 538 in file LPC23xx.inc
      At line 539 in file LPC23xx.inc
      At line 540 in file LPC23xx.inc

TMR3_BASE_ADDR E0074000



ARM Macro Assembler    Page 114 Alphabetic symbol ordering
Absolute symbols


Symbol: TMR3_BASE_ADDR
   Definitions
      At line 543 in file LPC23xx.inc
   Uses
      At line 544 in file LPC23xx.inc
      At line 545 in file LPC23xx.inc
      At line 546 in file LPC23xx.inc
      At line 547 in file LPC23xx.inc
      At line 548 in file LPC23xx.inc
      At line 549 in file LPC23xx.inc
      At line 550 in file LPC23xx.inc
      At line 551 in file LPC23xx.inc
      At line 552 in file LPC23xx.inc
      At line 553 in file LPC23xx.inc
      At line 554 in file LPC23xx.inc
      At line 555 in file LPC23xx.inc
      At line 556 in file LPC23xx.inc
      At line 557 in file LPC23xx.inc
      At line 558 in file LPC23xx.inc
      At line 559 in file LPC23xx.inc
      At line 560 in file LPC23xx.inc

TX_DATA FFE0C21C

Symbol: TX_DATA
   Definitions
      At line 978 in file LPC23xx.inc
   Uses
      None
Comment: TX_DATA unused
TX_PLENGTH FFE0C224

Symbol: TX_PLENGTH
   Definitions
      At line 980 in file LPC23xx.inc
   Uses
      None
Comment: TX_PLENGTH unused
U0ACR E000C020

Symbol: U0ACR
   Definitions
      At line 625 in file LPC23xx.inc
   Uses
      None
Comment: U0ACR unused
U0DLL E000C000

Symbol: U0DLL
   Definitions
      At line 617 in file LPC23xx.inc
   Uses
      None
Comment: U0DLL unused
U0DLM E000C004

Symbol: U0DLM
   Definitions



ARM Macro Assembler    Page 115 Alphabetic symbol ordering
Absolute symbols

      At line 618 in file LPC23xx.inc
   Uses
      None
Comment: U0DLM unused
U0FCR E000C008

Symbol: U0FCR
   Definitions
      At line 621 in file LPC23xx.inc
   Uses
      None
Comment: U0FCR unused
U0FDR E000C028

Symbol: U0FDR
   Definitions
      At line 627 in file LPC23xx.inc
   Uses
      None
Comment: U0FDR unused
U0ICR E000C024

Symbol: U0ICR
   Definitions
      At line 626 in file LPC23xx.inc
   Uses
      None
Comment: U0ICR unused
U0IER E000C004

Symbol: U0IER
   Definitions
      At line 619 in file LPC23xx.inc
   Uses
      None
Comment: U0IER unused
U0IIR E000C008

Symbol: U0IIR
   Definitions
      At line 620 in file LPC23xx.inc
   Uses
      None
Comment: U0IIR unused
U0LCR E000C00C

Symbol: U0LCR
   Definitions
      At line 622 in file LPC23xx.inc
   Uses
      None
Comment: U0LCR unused
U0LSR E000C014

Symbol: U0LSR
   Definitions
      At line 623 in file LPC23xx.inc
   Uses
      None



ARM Macro Assembler    Page 116 Alphabetic symbol ordering
Absolute symbols

Comment: U0LSR unused
U0RBR E000C000

Symbol: U0RBR
   Definitions
      At line 615 in file LPC23xx.inc
   Uses
      None
Comment: U0RBR unused
U0SCR E000C01C

Symbol: U0SCR
   Definitions
      At line 624 in file LPC23xx.inc
   Uses
      None
Comment: U0SCR unused
U0TER E000C030

Symbol: U0TER
   Definitions
      At line 628 in file LPC23xx.inc
   Uses
      None
Comment: U0TER unused
U0THR E000C000

Symbol: U0THR
   Definitions
      At line 616 in file LPC23xx.inc
   Uses
      None
Comment: U0THR unused
U1ACR E0010020

Symbol: U1ACR
   Definitions
      At line 644 in file LPC23xx.inc
   Uses
      None
Comment: U1ACR unused
U1DLL E0010000

Symbol: U1DLL
   Definitions
      At line 634 in file LPC23xx.inc
   Uses
      None
Comment: U1DLL unused
U1DLM E0010004

Symbol: U1DLM
   Definitions
      At line 635 in file LPC23xx.inc
   Uses
      None
Comment: U1DLM unused
U1FCR E0010008




ARM Macro Assembler    Page 117 Alphabetic symbol ordering
Absolute symbols

Symbol: U1FCR
   Definitions
      At line 638 in file LPC23xx.inc
   Uses
      None
Comment: U1FCR unused
U1FDR E0010028

Symbol: U1FDR
   Definitions
      At line 645 in file LPC23xx.inc
   Uses
      None
Comment: U1FDR unused
U1IER E0010004

Symbol: U1IER
   Definitions
      At line 636 in file LPC23xx.inc
   Uses
      None
Comment: U1IER unused
U1IIR E0010008

Symbol: U1IIR
   Definitions
      At line 637 in file LPC23xx.inc
   Uses
      None
Comment: U1IIR unused
U1LCR E001000C

Symbol: U1LCR
   Definitions
      At line 639 in file LPC23xx.inc
   Uses
      None
Comment: U1LCR unused
U1LSR E0010014

Symbol: U1LSR
   Definitions
      At line 641 in file LPC23xx.inc
   Uses
      None
Comment: U1LSR unused
U1MCR E0010010

Symbol: U1MCR
   Definitions
      At line 640 in file LPC23xx.inc
   Uses
      None
Comment: U1MCR unused
U1MSR E0010018

Symbol: U1MSR
   Definitions
      At line 642 in file LPC23xx.inc



ARM Macro Assembler    Page 118 Alphabetic symbol ordering
Absolute symbols

   Uses
      None
Comment: U1MSR unused
U1RBR E0010000

Symbol: U1RBR
   Definitions
      At line 632 in file LPC23xx.inc
   Uses
      None
Comment: U1RBR unused
U1SCR E001001C

Symbol: U1SCR
   Definitions
      At line 643 in file LPC23xx.inc
   Uses
      None
Comment: U1SCR unused
U1TER E0010030

Symbol: U1TER
   Definitions
      At line 646 in file LPC23xx.inc
   Uses
      None
Comment: U1TER unused
U1THR E0010000

Symbol: U1THR
   Definitions
      At line 633 in file LPC23xx.inc
   Uses
      None
Comment: U1THR unused
U2ACR E0078020

Symbol: U2ACR
   Definitions
      At line 660 in file LPC23xx.inc
   Uses
      None
Comment: U2ACR unused
U2DLL E0078000

Symbol: U2DLL
   Definitions
      At line 652 in file LPC23xx.inc
   Uses
      None
Comment: U2DLL unused
U2DLM E0078004

Symbol: U2DLM
   Definitions
      At line 653 in file LPC23xx.inc
   Uses
      None
Comment: U2DLM unused



ARM Macro Assembler    Page 119 Alphabetic symbol ordering
Absolute symbols

U2FCR E0078008

Symbol: U2FCR
   Definitions
      At line 656 in file LPC23xx.inc
   Uses
      None
Comment: U2FCR unused
U2FDR E0078028

Symbol: U2FDR
   Definitions
      At line 662 in file LPC23xx.inc
   Uses
      None
Comment: U2FDR unused
U2ICR E0078024

Symbol: U2ICR
   Definitions
      At line 661 in file LPC23xx.inc
   Uses
      None
Comment: U2ICR unused
U2IER E0078004

Symbol: U2IER
   Definitions
      At line 654 in file LPC23xx.inc
   Uses
      None
Comment: U2IER unused
U2IIR E0078008

Symbol: U2IIR
   Definitions
      At line 655 in file LPC23xx.inc
   Uses
      None
Comment: U2IIR unused
U2LCR E007800C

Symbol: U2LCR
   Definitions
      At line 657 in file LPC23xx.inc
   Uses
      None
Comment: U2LCR unused
U2LSR E0078014

Symbol: U2LSR
   Definitions
      At line 658 in file LPC23xx.inc
   Uses
      None
Comment: U2LSR unused
U2RBR E0078000

Symbol: U2RBR



ARM Macro Assembler    Page 120 Alphabetic symbol ordering
Absolute symbols

   Definitions
      At line 650 in file LPC23xx.inc
   Uses
      None
Comment: U2RBR unused
U2SCR E007801C

Symbol: U2SCR
   Definitions
      At line 659 in file LPC23xx.inc
   Uses
      None
Comment: U2SCR unused
U2TER E0078030

Symbol: U2TER
   Definitions
      At line 663 in file LPC23xx.inc
   Uses
      None
Comment: U2TER unused
U2THR E0078000

Symbol: U2THR
   Definitions
      At line 651 in file LPC23xx.inc
   Uses
      None
Comment: U2THR unused
U3ACR E007C020

Symbol: U3ACR
   Definitions
      At line 677 in file LPC23xx.inc
   Uses
      None
Comment: U3ACR unused
U3DLL E007C000

Symbol: U3DLL
   Definitions
      At line 669 in file LPC23xx.inc
   Uses
      None
Comment: U3DLL unused
U3DLM E007C004

Symbol: U3DLM
   Definitions
      At line 670 in file LPC23xx.inc
   Uses
      None
Comment: U3DLM unused
U3FCR E007C008

Symbol: U3FCR
   Definitions
      At line 673 in file LPC23xx.inc
   Uses



ARM Macro Assembler    Page 121 Alphabetic symbol ordering
Absolute symbols

      None
Comment: U3FCR unused
U3FDR E007C028

Symbol: U3FDR
   Definitions
      At line 679 in file LPC23xx.inc
   Uses
      None
Comment: U3FDR unused
U3ICR E007C024

Symbol: U3ICR
   Definitions
      At line 678 in file LPC23xx.inc
   Uses
      None
Comment: U3ICR unused
U3IER E007C004

Symbol: U3IER
   Definitions
      At line 671 in file LPC23xx.inc
   Uses
      None
Comment: U3IER unused
U3IIR E007C008

Symbol: U3IIR
   Definitions
      At line 672 in file LPC23xx.inc
   Uses
      None
Comment: U3IIR unused
U3LCR E007C00C

Symbol: U3LCR
   Definitions
      At line 674 in file LPC23xx.inc
   Uses
      None
Comment: U3LCR unused
U3LSR E007C014

Symbol: U3LSR
   Definitions
      At line 675 in file LPC23xx.inc
   Uses
      None
Comment: U3LSR unused
U3RBR E007C000

Symbol: U3RBR
   Definitions
      At line 667 in file LPC23xx.inc
   Uses
      None
Comment: U3RBR unused
U3SCR E007C01C



ARM Macro Assembler    Page 122 Alphabetic symbol ordering
Absolute symbols


Symbol: U3SCR
   Definitions
      At line 676 in file LPC23xx.inc
   Uses
      None
Comment: U3SCR unused
U3TER E007C030

Symbol: U3TER
   Definitions
      At line 680 in file LPC23xx.inc
   Uses
      None
Comment: U3TER unused
U3THR E007C000

Symbol: U3THR
   Definitions
      At line 668 in file LPC23xx.inc
   Uses
      None
Comment: U3THR unused
UART0_BASE_ADDR E000C000

Symbol: UART0_BASE_ADDR
   Definitions
      At line 614 in file LPC23xx.inc
   Uses
      At line 615 in file LPC23xx.inc
      At line 616 in file LPC23xx.inc
      At line 617 in file LPC23xx.inc
      At line 618 in file LPC23xx.inc
      At line 619 in file LPC23xx.inc
      At line 620 in file LPC23xx.inc
      At line 621 in file LPC23xx.inc
      At line 622 in file LPC23xx.inc
      At line 623 in file LPC23xx.inc
      At line 624 in file LPC23xx.inc
      At line 625 in file LPC23xx.inc
      At line 626 in file LPC23xx.inc
      At line 627 in file LPC23xx.inc
      At line 628 in file LPC23xx.inc

UART1_BASE_ADDR E0010000

Symbol: UART1_BASE_ADDR
   Definitions
      At line 631 in file LPC23xx.inc
   Uses
      At line 632 in file LPC23xx.inc
      At line 633 in file LPC23xx.inc
      At line 634 in file LPC23xx.inc
      At line 635 in file LPC23xx.inc
      At line 636 in file LPC23xx.inc
      At line 637 in file LPC23xx.inc
      At line 638 in file LPC23xx.inc
      At line 639 in file LPC23xx.inc
      At line 640 in file LPC23xx.inc



ARM Macro Assembler    Page 123 Alphabetic symbol ordering
Absolute symbols

      At line 641 in file LPC23xx.inc
      At line 642 in file LPC23xx.inc
      At line 643 in file LPC23xx.inc
      At line 644 in file LPC23xx.inc
      At line 645 in file LPC23xx.inc
      At line 646 in file LPC23xx.inc

UART2_BASE_ADDR E0078000

Symbol: UART2_BASE_ADDR
   Definitions
      At line 649 in file LPC23xx.inc
   Uses
      At line 650 in file LPC23xx.inc
      At line 651 in file LPC23xx.inc
      At line 652 in file LPC23xx.inc
      At line 653 in file LPC23xx.inc
      At line 654 in file LPC23xx.inc
      At line 655 in file LPC23xx.inc
      At line 656 in file LPC23xx.inc
      At line 657 in file LPC23xx.inc
      At line 658 in file LPC23xx.inc
      At line 659 in file LPC23xx.inc
      At line 660 in file LPC23xx.inc
      At line 661 in file LPC23xx.inc
      At line 662 in file LPC23xx.inc
      At line 663 in file LPC23xx.inc

UART3_BASE_ADDR E007C000

Symbol: UART3_BASE_ADDR
   Definitions
      At line 666 in file LPC23xx.inc
   Uses
      At line 667 in file LPC23xx.inc
      At line 668 in file LPC23xx.inc
      At line 669 in file LPC23xx.inc
      At line 670 in file LPC23xx.inc
      At line 671 in file LPC23xx.inc
      At line 672 in file LPC23xx.inc
      At line 673 in file LPC23xx.inc
      At line 674 in file LPC23xx.inc
      At line 675 in file LPC23xx.inc
      At line 676 in file LPC23xx.inc
      At line 677 in file LPC23xx.inc
      At line 678 in file LPC23xx.inc
      At line 679 in file LPC23xx.inc
      At line 680 in file LPC23xx.inc

UDCA_HEAD FFE0C280

Symbol: UDCA_HEAD
   Definitions
      At line 987 in file LPC23xx.inc
   Uses
      None
Comment: UDCA_HEAD unused
USBCLKCFG E01FC108




ARM Macro Assembler    Page 124 Alphabetic symbol ordering
Absolute symbols

Symbol: USBCLKCFG
   Definitions
      At line 379 in file LPC23xx.inc
   Uses
      None
Comment: USBCLKCFG unused
USBClkCtrl FFE0CFF4

Symbol: USBClkCtrl
   Definitions
      At line 1057 in file LPC23xx.inc
   Uses
      None
Comment: USBClkCtrl unused
USBClkSt FFE0CFF8

Symbol: USBClkSt
   Definitions
      At line 1058 in file LPC23xx.inc
   Uses
      None
Comment: USBClkSt unused
USBHC_BASE_ADDR FFE0C000

Symbol: USBHC_BASE_ADDR
   Definitions
      At line 1005 in file LPC23xx.inc
   Uses
      At line 1006 in file LPC23xx.inc
      At line 1007 in file LPC23xx.inc
      At line 1008 in file LPC23xx.inc
      At line 1009 in file LPC23xx.inc
      At line 1010 in file LPC23xx.inc
      At line 1011 in file LPC23xx.inc
      At line 1012 in file LPC23xx.inc
      At line 1013 in file LPC23xx.inc
      At line 1014 in file LPC23xx.inc
      At line 1015 in file LPC23xx.inc
      At line 1016 in file LPC23xx.inc
      At line 1017 in file LPC23xx.inc
      At line 1018 in file LPC23xx.inc
      At line 1019 in file LPC23xx.inc
      At line 1020 in file LPC23xx.inc
      At line 1021 in file LPC23xx.inc
      At line 1022 in file LPC23xx.inc
      At line 1023 in file LPC23xx.inc
      At line 1024 in file LPC23xx.inc
      At line 1025 in file LPC23xx.inc
      At line 1026 in file LPC23xx.inc
      At line 1027 in file LPC23xx.inc
      At line 1028 in file LPC23xx.inc

USBOTG_BASE_ADDR FFE0C100

Symbol: USBOTG_BASE_ADDR
   Definitions
      At line 1031 in file LPC23xx.inc
   Uses
      At line 1032 in file LPC23xx.inc



ARM Macro Assembler    Page 125 Alphabetic symbol ordering
Absolute symbols

      At line 1033 in file LPC23xx.inc
      At line 1034 in file LPC23xx.inc
      At line 1035 in file LPC23xx.inc
      At line 1037 in file LPC23xx.inc
      At line 1038 in file LPC23xx.inc
      At line 1056 in file LPC23xx.inc

USBOTG_CLK_BASE_ADDR FFE0CFF0

Symbol: USBOTG_CLK_BASE_ADDR
   Definitions
      At line 1050 in file LPC23xx.inc
   Uses
      At line 1051 in file LPC23xx.inc
      At line 1052 in file LPC23xx.inc
      At line 1057 in file LPC23xx.inc
      At line 1058 in file LPC23xx.inc

USBOTG_I2C_BASE_ADDR FFE0C300

Symbol: USBOTG_I2C_BASE_ADDR
   Definitions
      At line 1040 in file LPC23xx.inc
   Uses
      At line 1041 in file LPC23xx.inc
      At line 1042 in file LPC23xx.inc
      At line 1043 in file LPC23xx.inc
      At line 1044 in file LPC23xx.inc
      At line 1045 in file LPC23xx.inc
      At line 1046 in file LPC23xx.inc

USBPortSel FFE0C110

Symbol: USBPortSel
   Definitions
      At line 1056 in file LPC23xx.inc
   Uses
      None
Comment: USBPortSel unused
USB_BASE_ADDR FFE0C200

Symbol: USB_BASE_ADDR
   Definitions
      At line 949 in file LPC23xx.inc
   Uses
      At line 954 in file LPC23xx.inc
      At line 955 in file LPC23xx.inc
      At line 956 in file LPC23xx.inc
      At line 957 in file LPC23xx.inc
      At line 958 in file LPC23xx.inc
      At line 961 in file LPC23xx.inc
      At line 962 in file LPC23xx.inc
      At line 963 in file LPC23xx.inc
      At line 964 in file LPC23xx.inc
      At line 965 in file LPC23xx.inc
      At line 968 in file LPC23xx.inc
      At line 969 in file LPC23xx.inc
      At line 970 in file LPC23xx.inc
      At line 973 in file LPC23xx.inc



ARM Macro Assembler    Page 126 Alphabetic symbol ordering
Absolute symbols

      At line 974 in file LPC23xx.inc
      At line 977 in file LPC23xx.inc
      At line 978 in file LPC23xx.inc
      At line 979 in file LPC23xx.inc
      At line 980 in file LPC23xx.inc
      At line 981 in file LPC23xx.inc
      At line 984 in file LPC23xx.inc
      At line 985 in file LPC23xx.inc
      At line 986 in file LPC23xx.inc
      At line 987 in file LPC23xx.inc
      At line 988 in file LPC23xx.inc
      At line 989 in file LPC23xx.inc
      At line 990 in file LPC23xx.inc
      At line 991 in file LPC23xx.inc
      At line 992 in file LPC23xx.inc
      At line 993 in file LPC23xx.inc
      At line 994 in file LPC23xx.inc
      At line 995 in file LPC23xx.inc
      At line 996 in file LPC23xx.inc
      At line 997 in file LPC23xx.inc
      At line 998 in file LPC23xx.inc
      At line 999 in file LPC23xx.inc
      At line 1000 in file LPC23xx.inc
      At line 1001 in file LPC23xx.inc

USB_CTRL FFE0C228

Symbol: USB_CTRL
   Definitions
      At line 981 in file LPC23xx.inc
   Uses
      None
Comment: USB_CTRL unused
USB_INT_BASE_ADDR E01FC1C0

Symbol: USB_INT_BASE_ADDR
   Definitions
      At line 948 in file LPC23xx.inc
   Uses
      At line 951 in file LPC23xx.inc
Comment: USB_INT_BASE_ADDR used once
USB_INT_STAT E01FC1C0

Symbol: USB_INT_STAT
   Definitions
      At line 951 in file LPC23xx.inc
   Uses
      None
Comment: USB_INT_STAT unused
VICFIQStatus FFFFF004

Symbol: VICFIQStatus
   Definitions
      At line 7 in file LPC23xx.inc
   Uses
      None
Comment: VICFIQStatus unused
VICIRQStatus FFFFF000




ARM Macro Assembler    Page 127 Alphabetic symbol ordering
Absolute symbols

Symbol: VICIRQStatus
   Definitions
      At line 6 in file LPC23xx.inc
   Uses
      None
Comment: VICIRQStatus unused
VICIntEnClr FFFFF014

Symbol: VICIntEnClr
   Definitions
      At line 11 in file LPC23xx.inc
   Uses
      None
Comment: VICIntEnClr unused
VICIntEnable FFFFF010

Symbol: VICIntEnable
   Definitions
      At line 10 in file LPC23xx.inc
   Uses
      None
Comment: VICIntEnable unused
VICIntSelect FFFFF00C

Symbol: VICIntSelect
   Definitions
      At line 9 in file LPC23xx.inc
   Uses
      None
Comment: VICIntSelect unused
VICProtection FFFFF020

Symbol: VICProtection
   Definitions
      At line 14 in file LPC23xx.inc
   Uses
      None
Comment: VICProtection unused
VICRawIntr FFFFF008

Symbol: VICRawIntr
   Definitions
      At line 8 in file LPC23xx.inc
   Uses
      None
Comment: VICRawIntr unused
VICSWPrioMask FFFFF024

Symbol: VICSWPrioMask
   Definitions
      At line 15 in file LPC23xx.inc
   Uses
      None
Comment: VICSWPrioMask unused
VICSoftInt FFFFF018

Symbol: VICSoftInt
   Definitions
      At line 12 in file LPC23xx.inc



ARM Macro Assembler    Page 128 Alphabetic symbol ordering
Absolute symbols

   Uses
      None
Comment: VICSoftInt unused
VICSoftIntClr FFFFF01C

Symbol: VICSoftIntClr
   Definitions
      At line 13 in file LPC23xx.inc
   Uses
      None
Comment: VICSoftIntClr unused
VICVectAddr FFFFFF00

Symbol: VICVectAddr
   Definitions
      At line 85 in file LPC23xx.inc
   Uses
      None
Comment: VICVectAddr unused
VICVectAddr0 FFFFF100

Symbol: VICVectAddr0
   Definitions
      At line 17 in file LPC23xx.inc
   Uses
      None
Comment: VICVectAddr0 unused
VICVectAddr1 FFFFF104

Symbol: VICVectAddr1
   Definitions
      At line 18 in file LPC23xx.inc
   Uses
      None
Comment: VICVectAddr1 unused
VICVectAddr10 FFFFF128

Symbol: VICVectAddr10
   Definitions
      At line 27 in file LPC23xx.inc
   Uses
      None
Comment: VICVectAddr10 unused
VICVectAddr11 FFFFF12C

Symbol: VICVectAddr11
   Definitions
      At line 28 in file LPC23xx.inc
   Uses
      None
Comment: VICVectAddr11 unused
VICVectAddr12 FFFFF130

Symbol: VICVectAddr12
   Definitions
      At line 29 in file LPC23xx.inc
   Uses
      None
Comment: VICVectAddr12 unused



ARM Macro Assembler    Page 129 Alphabetic symbol ordering
Absolute symbols

VICVectAddr13 FFFFF134

Symbol: VICVectAddr13
   Definitions
      At line 30 in file LPC23xx.inc
   Uses
      None
Comment: VICVectAddr13 unused
VICVectAddr14 FFFFF138

Symbol: VICVectAddr14
   Definitions
      At line 31 in file LPC23xx.inc
   Uses
      None
Comment: VICVectAddr14 unused
VICVectAddr15 FFFFF13C

Symbol: VICVectAddr15
   Definitions
      At line 32 in file LPC23xx.inc
   Uses
      None
Comment: VICVectAddr15 unused
VICVectAddr16 FFFFF140

Symbol: VICVectAddr16
   Definitions
      At line 33 in file LPC23xx.inc
   Uses
      None
Comment: VICVectAddr16 unused
VICVectAddr17 FFFFF144

Symbol: VICVectAddr17
   Definitions
      At line 34 in file LPC23xx.inc
   Uses
      None
Comment: VICVectAddr17 unused
VICVectAddr18 FFFFF148

Symbol: VICVectAddr18
   Definitions
      At line 35 in file LPC23xx.inc
   Uses
      None
Comment: VICVectAddr18 unused
VICVectAddr19 FFFFF14C

Symbol: VICVectAddr19
   Definitions
      At line 36 in file LPC23xx.inc
   Uses
      None
Comment: VICVectAddr19 unused
VICVectAddr2 FFFFF108

Symbol: VICVectAddr2



ARM Macro Assembler    Page 130 Alphabetic symbol ordering
Absolute symbols

   Definitions
      At line 19 in file LPC23xx.inc
   Uses
      None
Comment: VICVectAddr2 unused
VICVectAddr20 FFFFF150

Symbol: VICVectAddr20
   Definitions
      At line 37 in file LPC23xx.inc
   Uses
      None
Comment: VICVectAddr20 unused
VICVectAddr21 FFFFF154

Symbol: VICVectAddr21
   Definitions
      At line 38 in file LPC23xx.inc
   Uses
      None
Comment: VICVectAddr21 unused
VICVectAddr22 FFFFF158

Symbol: VICVectAddr22
   Definitions
      At line 39 in file LPC23xx.inc
   Uses
      None
Comment: VICVectAddr22 unused
VICVectAddr23 FFFFF15C

Symbol: VICVectAddr23
   Definitions
      At line 40 in file LPC23xx.inc
   Uses
      None
Comment: VICVectAddr23 unused
VICVectAddr24 FFFFF160

Symbol: VICVectAddr24
   Definitions
      At line 41 in file LPC23xx.inc
   Uses
      None
Comment: VICVectAddr24 unused
VICVectAddr25 FFFFF164

Symbol: VICVectAddr25
   Definitions
      At line 42 in file LPC23xx.inc
   Uses
      None
Comment: VICVectAddr25 unused
VICVectAddr26 FFFFF168

Symbol: VICVectAddr26
   Definitions
      At line 43 in file LPC23xx.inc
   Uses



ARM Macro Assembler    Page 131 Alphabetic symbol ordering
Absolute symbols

      None
Comment: VICVectAddr26 unused
VICVectAddr27 FFFFF16C

Symbol: VICVectAddr27
   Definitions
      At line 44 in file LPC23xx.inc
   Uses
      None
Comment: VICVectAddr27 unused
VICVectAddr28 FFFFF170

Symbol: VICVectAddr28
   Definitions
      At line 45 in file LPC23xx.inc
   Uses
      None
Comment: VICVectAddr28 unused
VICVectAddr29 FFFFF174

Symbol: VICVectAddr29
   Definitions
      At line 46 in file LPC23xx.inc
   Uses
      None
Comment: VICVectAddr29 unused
VICVectAddr3 FFFFF10C

Symbol: VICVectAddr3
   Definitions
      At line 20 in file LPC23xx.inc
   Uses
      None
Comment: VICVectAddr3 unused
VICVectAddr30 FFFFF178

Symbol: VICVectAddr30
   Definitions
      At line 47 in file LPC23xx.inc
   Uses
      None
Comment: VICVectAddr30 unused
VICVectAddr31 FFFFF17C

Symbol: VICVectAddr31
   Definitions
      At line 48 in file LPC23xx.inc
   Uses
      None
Comment: VICVectAddr31 unused
VICVectAddr4 FFFFF110

Symbol: VICVectAddr4
   Definitions
      At line 21 in file LPC23xx.inc
   Uses
      None
Comment: VICVectAddr4 unused
VICVectAddr5 FFFFF114



ARM Macro Assembler    Page 132 Alphabetic symbol ordering
Absolute symbols


Symbol: VICVectAddr5
   Definitions
      At line 22 in file LPC23xx.inc
   Uses
      None
Comment: VICVectAddr5 unused
VICVectAddr6 FFFFF118

Symbol: VICVectAddr6
   Definitions
      At line 23 in file LPC23xx.inc
   Uses
      None
Comment: VICVectAddr6 unused
VICVectAddr7 FFFFF11C

Symbol: VICVectAddr7
   Definitions
      At line 24 in file LPC23xx.inc
   Uses
      None
Comment: VICVectAddr7 unused
VICVectAddr8 FFFFF120

Symbol: VICVectAddr8
   Definitions
      At line 25 in file LPC23xx.inc
   Uses
      None
Comment: VICVectAddr8 unused
VICVectAddr9 FFFFF124

Symbol: VICVectAddr9
   Definitions
      At line 26 in file LPC23xx.inc
   Uses
      None
Comment: VICVectAddr9 unused
VICVectCntl0 FFFFF200

Symbol: VICVectCntl0
   Definitions
      At line 52 in file LPC23xx.inc
   Uses
      None
Comment: VICVectCntl0 unused
VICVectCntl1 FFFFF204

Symbol: VICVectCntl1
   Definitions
      At line 53 in file LPC23xx.inc
   Uses
      None
Comment: VICVectCntl1 unused
VICVectCntl10 FFFFF228

Symbol: VICVectCntl10
   Definitions



ARM Macro Assembler    Page 133 Alphabetic symbol ordering
Absolute symbols

      At line 62 in file LPC23xx.inc
   Uses
      None
Comment: VICVectCntl10 unused
VICVectCntl11 FFFFF22C

Symbol: VICVectCntl11
   Definitions
      At line 63 in file LPC23xx.inc
   Uses
      None
Comment: VICVectCntl11 unused
VICVectCntl12 FFFFF230

Symbol: VICVectCntl12
   Definitions
      At line 64 in file LPC23xx.inc
   Uses
      None
Comment: VICVectCntl12 unused
VICVectCntl13 FFFFF234

Symbol: VICVectCntl13
   Definitions
      At line 65 in file LPC23xx.inc
   Uses
      None
Comment: VICVectCntl13 unused
VICVectCntl14 FFFFF238

Symbol: VICVectCntl14
   Definitions
      At line 66 in file LPC23xx.inc
   Uses
      None
Comment: VICVectCntl14 unused
VICVectCntl15 FFFFF23C

Symbol: VICVectCntl15
   Definitions
      At line 67 in file LPC23xx.inc
   Uses
      None
Comment: VICVectCntl15 unused
VICVectCntl16 FFFFF240

Symbol: VICVectCntl16
   Definitions
      At line 68 in file LPC23xx.inc
   Uses
      None
Comment: VICVectCntl16 unused
VICVectCntl17 FFFFF244

Symbol: VICVectCntl17
   Definitions
      At line 69 in file LPC23xx.inc
   Uses
      None



ARM Macro Assembler    Page 134 Alphabetic symbol ordering
Absolute symbols

Comment: VICVectCntl17 unused
VICVectCntl18 FFFFF248

Symbol: VICVectCntl18
   Definitions
      At line 70 in file LPC23xx.inc
   Uses
      None
Comment: VICVectCntl18 unused
VICVectCntl19 FFFFF24C

Symbol: VICVectCntl19
   Definitions
      At line 71 in file LPC23xx.inc
   Uses
      None
Comment: VICVectCntl19 unused
VICVectCntl2 FFFFF208

Symbol: VICVectCntl2
   Definitions
      At line 54 in file LPC23xx.inc
   Uses
      None
Comment: VICVectCntl2 unused
VICVectCntl20 FFFFF250

Symbol: VICVectCntl20
   Definitions
      At line 72 in file LPC23xx.inc
   Uses
      None
Comment: VICVectCntl20 unused
VICVectCntl21 FFFFF254

Symbol: VICVectCntl21
   Definitions
      At line 73 in file LPC23xx.inc
   Uses
      None
Comment: VICVectCntl21 unused
VICVectCntl22 FFFFF258

Symbol: VICVectCntl22
   Definitions
      At line 74 in file LPC23xx.inc
   Uses
      None
Comment: VICVectCntl22 unused
VICVectCntl23 FFFFF25C

Symbol: VICVectCntl23
   Definitions
      At line 75 in file LPC23xx.inc
   Uses
      None
Comment: VICVectCntl23 unused
VICVectCntl24 FFFFF260




ARM Macro Assembler    Page 135 Alphabetic symbol ordering
Absolute symbols

Symbol: VICVectCntl24
   Definitions
      At line 76 in file LPC23xx.inc
   Uses
      None
Comment: VICVectCntl24 unused
VICVectCntl25 FFFFF264

Symbol: VICVectCntl25
   Definitions
      At line 77 in file LPC23xx.inc
   Uses
      None
Comment: VICVectCntl25 unused
VICVectCntl26 FFFFF268

Symbol: VICVectCntl26
   Definitions
      At line 78 in file LPC23xx.inc
   Uses
      None
Comment: VICVectCntl26 unused
VICVectCntl27 FFFFF26C

Symbol: VICVectCntl27
   Definitions
      At line 79 in file LPC23xx.inc
   Uses
      None
Comment: VICVectCntl27 unused
VICVectCntl28 FFFFF270

Symbol: VICVectCntl28
   Definitions
      At line 80 in file LPC23xx.inc
   Uses
      None
Comment: VICVectCntl28 unused
VICVectCntl29 FFFFF274

Symbol: VICVectCntl29
   Definitions
      At line 81 in file LPC23xx.inc
   Uses
      None
Comment: VICVectCntl29 unused
VICVectCntl3 FFFFF20C

Symbol: VICVectCntl3
   Definitions
      At line 55 in file LPC23xx.inc
   Uses
      None
Comment: VICVectCntl3 unused
VICVectCntl30 FFFFF278

Symbol: VICVectCntl30
   Definitions
      At line 82 in file LPC23xx.inc



ARM Macro Assembler    Page 136 Alphabetic symbol ordering
Absolute symbols

   Uses
      None
Comment: VICVectCntl30 unused
VICVectCntl31 FFFFF27C

Symbol: VICVectCntl31
   Definitions
      At line 83 in file LPC23xx.inc
   Uses
      None
Comment: VICVectCntl31 unused
VICVectCntl4 FFFFF210

Symbol: VICVectCntl4
   Definitions
      At line 56 in file LPC23xx.inc
   Uses
      None
Comment: VICVectCntl4 unused
VICVectCntl5 FFFFF214

Symbol: VICVectCntl5
   Definitions
      At line 57 in file LPC23xx.inc
   Uses
      None
Comment: VICVectCntl5 unused
VICVectCntl6 FFFFF218

Symbol: VICVectCntl6
   Definitions
      At line 58 in file LPC23xx.inc
   Uses
      None
Comment: VICVectCntl6 unused
VICVectCntl7 FFFFF21C

Symbol: VICVectCntl7
   Definitions
      At line 59 in file LPC23xx.inc
   Uses
      None
Comment: VICVectCntl7 unused
VICVectCntl8 FFFFF220

Symbol: VICVectCntl8
   Definitions
      At line 60 in file LPC23xx.inc
   Uses
      None
Comment: VICVectCntl8 unused
VICVectCntl9 FFFFF224

Symbol: VICVectCntl9
   Definitions
      At line 61 in file LPC23xx.inc
   Uses
      None
Comment: VICVectCntl9 unused



ARM Macro Assembler    Page 137 Alphabetic symbol ordering
Absolute symbols

VIC_BASE_ADDR FFFFF000

Symbol: VIC_BASE_ADDR
   Definitions
      At line 5 in file LPC23xx.inc
   Uses
      At line 6 in file LPC23xx.inc
      At line 7 in file LPC23xx.inc
      At line 8 in file LPC23xx.inc
      At line 9 in file LPC23xx.inc
      At line 10 in file LPC23xx.inc
      At line 11 in file LPC23xx.inc
      At line 12 in file LPC23xx.inc
      At line 13 in file LPC23xx.inc
      At line 14 in file LPC23xx.inc
      At line 15 in file LPC23xx.inc
      At line 17 in file LPC23xx.inc
      At line 18 in file LPC23xx.inc
      At line 19 in file LPC23xx.inc
      At line 20 in file LPC23xx.inc
      At line 21 in file LPC23xx.inc
      At line 22 in file LPC23xx.inc
      At line 23 in file LPC23xx.inc
      At line 24 in file LPC23xx.inc
      At line 25 in file LPC23xx.inc
      At line 26 in file LPC23xx.inc
      At line 27 in file LPC23xx.inc
      At line 28 in file LPC23xx.inc
      At line 29 in file LPC23xx.inc
      At line 30 in file LPC23xx.inc
      At line 31 in file LPC23xx.inc
      At line 32 in file LPC23xx.inc
      At line 33 in file LPC23xx.inc
      At line 34 in file LPC23xx.inc
      At line 35 in file LPC23xx.inc
      At line 36 in file LPC23xx.inc
      At line 37 in file LPC23xx.inc
      At line 38 in file LPC23xx.inc
      At line 39 in file LPC23xx.inc
      At line 40 in file LPC23xx.inc
      At line 41 in file LPC23xx.inc
      At line 42 in file LPC23xx.inc
      At line 43 in file LPC23xx.inc
      At line 44 in file LPC23xx.inc
      At line 45 in file LPC23xx.inc
      At line 46 in file LPC23xx.inc
      At line 47 in file LPC23xx.inc
      At line 48 in file LPC23xx.inc
      At line 52 in file LPC23xx.inc
      At line 53 in file LPC23xx.inc
      At line 54 in file LPC23xx.inc
      At line 55 in file LPC23xx.inc
      At line 56 in file LPC23xx.inc
      At line 57 in file LPC23xx.inc
      At line 58 in file LPC23xx.inc
      At line 59 in file LPC23xx.inc
      At line 60 in file LPC23xx.inc
      At line 61 in file LPC23xx.inc
      At line 62 in file LPC23xx.inc



ARM Macro Assembler    Page 138 Alphabetic symbol ordering
Absolute symbols

      At line 63 in file LPC23xx.inc
      At line 64 in file LPC23xx.inc
      At line 65 in file LPC23xx.inc
      At line 66 in file LPC23xx.inc
      At line 67 in file LPC23xx.inc
      At line 68 in file LPC23xx.inc
      At line 69 in file LPC23xx.inc
      At line 70 in file LPC23xx.inc
      At line 71 in file LPC23xx.inc
      At line 72 in file LPC23xx.inc
      At line 73 in file LPC23xx.inc
      At line 74 in file LPC23xx.inc
      At line 75 in file LPC23xx.inc
      At line 76 in file LPC23xx.inc
      At line 77 in file LPC23xx.inc
      At line 78 in file LPC23xx.inc
      At line 79 in file LPC23xx.inc
      At line 80 in file LPC23xx.inc
      At line 81 in file LPC23xx.inc
      At line 82 in file LPC23xx.inc
      At line 83 in file LPC23xx.inc
      At line 85 in file LPC23xx.inc

WDCLKSEL E0000010

Symbol: WDCLKSEL
   Definitions
      At line 805 in file LPC23xx.inc
   Uses
      None
Comment: WDCLKSEL unused
WDFEED E0000008

Symbol: WDFEED
   Definitions
      At line 803 in file LPC23xx.inc
   Uses
      None
Comment: WDFEED unused
WDG_BASE_ADDR E0000000

Symbol: WDG_BASE_ADDR
   Definitions
      At line 800 in file LPC23xx.inc
   Uses
      At line 801 in file LPC23xx.inc
      At line 802 in file LPC23xx.inc
      At line 803 in file LPC23xx.inc
      At line 804 in file LPC23xx.inc
      At line 805 in file LPC23xx.inc

WDMOD E0000000

Symbol: WDMOD
   Definitions
      At line 801 in file LPC23xx.inc
   Uses
      None
Comment: WDMOD unused



ARM Macro Assembler    Page 139 Alphabetic symbol ordering
Absolute symbols

WDTC E0000004

Symbol: WDTC
   Definitions
      At line 802 in file LPC23xx.inc
   Uses
      None
Comment: WDTC unused
WDTV E000000C

Symbol: WDTV
   Definitions
      At line 804 in file LPC23xx.inc
   Uses
      None
Comment: WDTV unused
916 symbols



ARM Macro Assembler    Page 1 Alphabetic symbol ordering
External symbols

LCD_command 00000000

Symbol: LCD_command
   Definitions
      At line 13 in file PosPeriod_StringDisplay.s
   Uses
      At line 25 in file PosPeriod_StringDisplay.s
      At line 27 in file PosPeriod_StringDisplay.s
      At line 51 in file PosPeriod_StringDisplay.s
      At line 59 in file PosPeriod_StringDisplay.s
      At line 67 in file PosPeriod_StringDisplay.s
      At line 75 in file PosPeriod_StringDisplay.s
      At line 83 in file PosPeriod_StringDisplay.s
      At line 91 in file PosPeriod_StringDisplay.s
      At line 99 in file PosPeriod_StringDisplay.s
      At line 107 in file PosPeriod_StringDisplay.s

StringDisplay 00000000

Symbol: StringDisplay
   Definitions
      At line 12 in file PosPeriod_StringDisplay.s
   Uses
      At line 49 in file PosPeriod_StringDisplay.s
      At line 53 in file PosPeriod_StringDisplay.s
      At line 57 in file PosPeriod_StringDisplay.s
      At line 61 in file PosPeriod_StringDisplay.s
      At line 65 in file PosPeriod_StringDisplay.s
      At line 69 in file PosPeriod_StringDisplay.s
      At line 73 in file PosPeriod_StringDisplay.s
      At line 77 in file PosPeriod_StringDisplay.s
      At line 81 in file PosPeriod_StringDisplay.s
      At line 85 in file PosPeriod_StringDisplay.s
      At line 89 in file PosPeriod_StringDisplay.s
      At line 93 in file PosPeriod_StringDisplay.s
      At line 97 in file PosPeriod_StringDisplay.s
      At line 101 in file PosPeriod_StringDisplay.s
      At line 105 in file PosPeriod_StringDisplay.s
      At line 109 in file PosPeriod_StringDisplay.s

__main 00000000

Symbol: __main
   Definitions
      At line 11 in file PosPeriod_StringDisplay.s
   Uses
      None
Comment: __main unused
3 symbols
1273 symbols in table
